(lp0
S''
p1
aVJan 23, 2015
p2
ag1
ag1
ag1
aVNov 26, 2014
p3
aVApr 02, 2015
p4
ag1
ag1
aVMar 10, 2015
p5
aVNov 26, 2014
p6
aVJan 22, 2015
p7
ag1
aVNov 26, 2014
p8
aVNov 26, 2014
p9
ag1
aVFeb 16, 2016
p10
aVMar 18, 2015
p11
aVNov 26, 2014
p12
aVJan 22, 2015
p13
aVJan 23, 2015
p14
aVNov 26, 2014
p15
aVNov 26, 2014
p16
ag1
aVJan 23, 2015
p17
ag1
aVJan 22, 2015
p18
aVJan 06, 2016
p19
aVJan 06, 2016
p20
aVJan 06, 2016
p21
aVFeb 16, 2016
p22
aVJan 22, 2015
p23
aVMar 14, 2016
p24
ag1
ag1
aVJan 22, 2015
p25
aVNov 26, 2014
p26
ag1
ag1
ag1
aVMar 09, 2015
p27
ag1
aVNov 26, 2014
p28
aVJan 23, 2015
p29
ag1
ag1
aVNov 26, 2014
p30
aVJan 22, 2015
p31
ag1
ag1
aVNov 26, 2014
p32
aVNov 26, 2014
p33
aVJan 07, 2016
p34
aVJan 22, 2015
p35
ag1
aVNov 26, 2014
p36
ag1
ag1
aVNov 26, 2014
p37
ag1
aVJan 22, 2015
p38
ag1
aVJan 22, 2015
p39
aVJan 22, 2015
p40
aVJan 22, 2015
p41
aVJan 07, 2016
p42
a.(lp0
S''
p1
aVJan 23, 2015
p2
ag1
ag1
ag1
aVMar 10, 2015
p3
aVMay 04, 2016
p4
ag1
ag1
aVMar 10, 2015
p5
aVOct 19, 2015
p6
aVJan 22, 2015
p7
ag1
aVNov 26, 2014
p8
aVFeb 16, 2015
p9
ag1
aVMar 11, 2016
p10
aVApr 06, 2016
p11
aVMar 01, 2016
p12
aVFeb 16, 2015
p13
aVApr 26, 2016
p14
aVMar 14, 2016
p15
aVFeb 16, 2015
p16
ag1
aVMar 11, 2016
p17
ag1
aVFeb 16, 2015
p18
aVJan 08, 2016
p19
aVJan 08, 2016
p20
aVJan 07, 2016
p21
aVMar 11, 2016
p22
aVFeb 16, 2015
p23
aVMar 14, 2016
p24
ag1
ag1
aVJan 22, 2015
p25
aVMar 10, 2015
p26
ag1
ag1
ag1
aVMar 09, 2015
p27
ag1
aVNov 26, 2014
p28
aVFeb 16, 2015
p29
ag1
ag1
aVNov 26, 2014
p30
aVFeb 16, 2015
p31
ag1
ag1
aVMar 10, 2015
p32
aVFeb 16, 2015
p33
aVJan 08, 2016
p34
aVFeb 16, 2015
p35
ag1
aVDec 22, 2015
p36
ag1
ag1
aVFeb 29, 2016
p37
ag1
aVFeb 16, 2015
p38
ag1
aVFeb 16, 2015
p39
aVFeb 16, 2015
p40
aVFeb 16, 2015
p41
aVJan 08, 2016
p42
a.