(lp0
S'UUID'
p1
aS'id'
p2
aS'NEW_title'
p3
aS'NEW_abstract'
p4
aS'NEW_keywords_theme'
p5
aS'NEW_keywords_place'
p6
aS'NEW_topic_categories'
p7
aS'NEW_link_download'
p8
aS'NEW_link_information'
p9
aS'NEW_link_service_esri'
p10
aS'NEW_link_service_wms'
p11
aS'NEW_distribution_format'
p12
aS'NEW_date_publication'
p13
aS'NEW_date_revision'
p14
aS'originator'
p15
aS'publisher'
p16
aS'datasetURI'
p17
a.(lp0
(lp1
S'http://gis.michigan.opendata.arcgis.com/datasets/5b7e1cb0e5b84b9baacc7ac516d4f5b0_7'
p2
aS'168564'
p3
aS'Wildfire Point Locations'
p4
aS'Points generated from the FireMaster table x/y coordinates. These represent 2014 wildfires greater than 10 acres occuring on DNR Land.'
p5
aS'wildfire###dnr###fire'
p6
aS'Michigan'
p7
aS''
p8
aS'http://gis.michigan.opendata.arcgis.com/datasets/5b7e1cb0e5b84b9baacc7ac516d4f5b0_7.zip'
p9
aS'http://gis.michigan.opendata.arcgis.com/datasets/5b7e1cb0e5b84b9baacc7ac516d4f5b0_7'
p10
aS'https://gisago.mcgi.state.mi.us/arcgis/rest/services/DNR/dnrForestry/MapServer/7'
p11
ag8
aS'Shapefile shapefile'
p12
ag8
ag8
aS'State of  Michigan GIS Open Data'
p13
aS'State of  Michigan GIS Open Data'
p14
aS'WildfirePointLocations'
p15
aa(lp16
S'http://gis.michigan.opendata.arcgis.com/datasets/fa649af4d96a4766859f8a822d6d36d3_3'
p17
aS'168563'
p18
aS'Villages'
p19
aS'Villages from the Michigan Geographic Framework (MGF) base map. More Metadata'
p20
aS'boundaries###michigan geographic framework###michigan###mgf'
p21
aS'Michigan'
p22
aS'boundaries'
p23
aS'http://gis.michigan.opendata.arcgis.com/datasets/fa649af4d96a4766859f8a822d6d36d3_3.zip'
p24
aS'http://gis.michigan.opendata.arcgis.com/datasets/fa649af4d96a4766859f8a822d6d36d3_3'
p25
aS'https://gisago.mcgi.state.mi.us/arcgis/rest/services/OpenData/michigan_geographic_framework/MapServer/3'
p26
ag8
ag12
ag8
ag8
aS'State of  Michigan GIS Open Data'
p27
aS'State of  Michigan GIS Open Data'
p28
aS'Villages'
p29
aa(lp30
S'http://gis.michigan.opendata.arcgis.com/datasets/1f55cd0e81184687a4975619829da561_3'
p31
aS'168562'
p32
aS'Wellhead Protection Areas'
p33
aS'Wellhead protection areas represent the land surface area that contributes ground water to wells serving public water supply systems throughout Michigan. The areas define a landscape in which management strategies are employed to protect public water supply wells from ground water contamination. More Metadata'
p34
aS'hydro###groundwater###michigan###public health###deq'
p35
aS'Michigan'
p36
aS'healthgeoscientificInformationinlandWaters'
p37
aS'http://gis.michigan.opendata.arcgis.com/datasets/1f55cd0e81184687a4975619829da561_3.zip'
p38
aS'http://gis.michigan.opendata.arcgis.com/datasets/1f55cd0e81184687a4975619829da561_3'
p39
aS'https://gisago.mcgi.state.mi.us/arcgis/rest/services/OpenData/public_health/MapServer/3'
p40
ag8
ag12
ag8
ag8
aS'State of  Michigan GIS Open Data'
p41
aS'State of  Michigan GIS Open Data'
p42
aS'WellheadProtectionAreas'
p43
aa(lp44
S'http://gis.michigan.opendata.arcgis.com/datasets/04966a515fd3413c8b9ab36376466748_21'
p45
aS'168561'
p46
aS'Watershed Boundary - 8 Digit'
p47
aS'"This dataset at 1:24,000 scale is a greatly expanded version of the hydrologic units created in the mid-1970\'s by the U.S. Geological Survey under the sponsorship of the Water Resources Council. The WBD is a complete set of hydrologic units from new watershed and subwatesheds less than 10,000 acres to entire river systems draining large hydrologic unit regions, all attributed by a standard nomenclature. More Metadata"'
p48
aS'hydro###michigan###deq'
p49
aS'Michigan'
p50
aS'geoscientificInformationinlandWaters'
p51
aS'http://gis.michigan.opendata.arcgis.com/datasets/04966a515fd3413c8b9ab36376466748_21.zip'
p52
aS'http://gis.michigan.opendata.arcgis.com/datasets/04966a515fd3413c8b9ab36376466748_21'
p53
aS'https://gisago.mcgi.state.mi.us/arcgis/rest/services/OpenData/hydro/MapServer/21'
p54
ag8
ag12
ag8
ag8
aS'State of  Michigan GIS Open Data'
p55
aS'State of  Michigan GIS Open Data'
p56
aS'WatershedBoundary8Digit'
p57
aa(lp58
S'http://gis.michigan.opendata.arcgis.com/datasets/48e1e6e762f644a09f00c99ae794f69a_20'
p59
aS'168560'
p60
aS'Watershed Boundary - 12 Digit'
p61
aS'"This dataset at 1:24,000 scale is a greatly expanded version of the hydrologic units created in the mid-1970\'s by the U.S. Geological Survey under the sponsorship of the Water Resources Council. The WBD is a complete set of hydrologic units from new watershed and subwatesheds less than 10,000 acres to entire river systems draining large hydrologic unit regions, all attributed by a standard nomenclature. Development of the Watershed Boundary Dataset started in the early 1990\'s and has progressed to the format and attribution that is now being distributed. The delineation and attribution was done on a state basis using a variety of methods and source data. Each state HU dataset has gone through an extensive quality review process to ensure accuracy and compliance to the Federal Standard for Delineation of Hydrologic Unit Boundaries before and during submittal to USDA-NRCS National Geospatial Management Center (NGMC). More Metadata"'
p62
aS'hydro###michigan###deq'
p63
aS'Michigan'
p64
aS'geoscientificInformationinlandWaters'
p65
aS'http://gis.michigan.opendata.arcgis.com/datasets/48e1e6e762f644a09f00c99ae794f69a_20.zip'
p66
aS'http://gis.michigan.opendata.arcgis.com/datasets/48e1e6e762f644a09f00c99ae794f69a_20'
p67
aS'https://gisago.mcgi.state.mi.us/arcgis/rest/services/OpenData/hydro/MapServer/20'
p68
ag8
ag12
ag8
ag8
aS'State of  Michigan GIS Open Data'
p69
aS'State of  Michigan GIS Open Data'
p70
aS'WatershedBoundary12Digit'
p71
aa(lp72
S'http://gis.michigan.opendata.arcgis.com/datasets/f2443aafaaa641c79b574728665b47e4_16'
p73
aS'168559'
p74
aS'Watershed Basins'
p75
aS'Watershed Basins More Metadata'
p76
aS'hydro###michigan'
p77
aS'Michigan'
p78
aS'geoscientificInformationinlandWaters'
p79
aS'http://gis.michigan.opendata.arcgis.com/datasets/f2443aafaaa641c79b574728665b47e4_16.zip'
p80
aS'http://gis.michigan.opendata.arcgis.com/datasets/f2443aafaaa641c79b574728665b47e4_16'
p81
aS'https://gisago.mcgi.state.mi.us/arcgis/rest/services/OpenData/hydro/MapServer/16'
p82
ag8
ag12
ag8
ag8
aS'State of  Michigan GIS Open Data'
p83
aS'State of  Michigan GIS Open Data'
p84
aS'WatershedBasins'
p85
aa(lp86
S'http://gis.michigan.opendata.arcgis.com/datasets/ed9fcf847a044091be665e6073c49582_4'
p87
aS'168565'
p88
aS'Topo Quad Boundaries'
p89
aS'"The 1:24,000-scale (24K) U.S. Geological Survey (USGS) quadrangle boundary data set contains the following information. (1) The approximate boundaries of the various 24K USGS quadrangles. (2) The names and indexing codes associated with each 24K quadrangle.Topo Quads Metadata More Metadata"'
p90
aS'michigan###topography###boundaries###elevation'
p91
aS'Michigan'
p92
aS'elevationboundaries'
p93
aS'http://gis.michigan.opendata.arcgis.com/datasets/ed9fcf847a044091be665e6073c49582_4.zip'
p94
aS'http://gis.michigan.opendata.arcgis.com/datasets/ed9fcf847a044091be665e6073c49582_4'
p95
aS'https://gisago.mcgi.state.mi.us/arcgis/rest/services/OpenData/elevation/MapServer/4'
p96
ag8
ag12
ag8
ag8
aS'State of  Michigan GIS Open Data'
p97
aS'State of  Michigan GIS Open Data'
p98
aS'TopoQuadBoundaries'
p99
aa(lp100
S'http://gis.michigan.opendata.arcgis.com/datasets/403b88ca6cc443a59e54eb28e4f4de98_5'
p101
aS'168569'
p102
aS'State Forest, Wildlife, and Game Areas Open to Hunting'
p103
aS'"State Forests and State Wildlife and Game Areas Open to Hunting includes lands managed by the Michigan Department of Natural Resources Forest Resources Division and Wildlife Division that are open to public hunting. Please double check with the appropriate agency for specific rules, regulations, and restrictions."'
p104
aS'hunting###hunting land###dnr'
p105
aS'Michigan'
p106
aS'economy'
p107
aS'http://gis.michigan.opendata.arcgis.com/datasets/403b88ca6cc443a59e54eb28e4f4de98_5.zip'
p108
aS'http://gis.michigan.opendata.arcgis.com/datasets/403b88ca6cc443a59e54eb28e4f4de98_5'
p109
aS'https://gisago.mcgi.state.mi.us/arcgis/rest/services/DNR/dnrHuntableLands/MapServer/5'
p110
ag8
ag12
ag8
ag8
aS'State of  Michigan GIS Open Data'
p111
aS'State of  Michigan GIS Open Data'
p112
aS'StateForestWildlifeandGameAreasOpentoHunting'
p113
aa(lp114
S'http://gis.michigan.opendata.arcgis.com/datasets/a54ba77223a641f48c0cbabe7da4a190_8'
p115
aS'168568'
p116
aS'State Owned Roads'
p117
aS'State owned roads from the Michigan Geographic Framework (MGF) base map. More Metadata'
p118
aS'trunkline###michigan###michigan geographic framework###freeways###mgf###highways###transportation'
p119
aS'Michigan'
p120
aS'transportationintelligenceMilitary'
p121
aS'http://gis.michigan.opendata.arcgis.com/datasets/a54ba77223a641f48c0cbabe7da4a190_8.zip'
p122
aS'http://gis.michigan.opendata.arcgis.com/datasets/a54ba77223a641f48c0cbabe7da4a190_8'
p123
aS'https://gisago.mcgi.state.mi.us/arcgis/rest/services/OpenData/michigan_geographic_framework/MapServer/8'
p124
ag8
ag12
ag8
ag8
aS'State of  Michigan GIS Open Data'
p125
aS'State of  Michigan GIS Open Data'
p126
aS'StateOwnedRoads'
p127
aa(lp128
S'http://gis.michigan.opendata.arcgis.com/datasets/3e28c59c21de444dabf083283e38f5f2_6'
p129
aS'168567'
p130
aS'State Parks Huntable Lands'
p131
aS'"State Parks Open to Hunting includes lands managed by the Michigan Department of Natural Resources Parks and Recreation Division that are open to public hunting. Please double check with the appropriate agency for specific rules, regulations, and restrictions."'
p132
aS'hunting###hunting land###dnr'
p133
aS'Michigan'
p134
aS'economy'
p135
aS'http://gis.michigan.opendata.arcgis.com/datasets/3e28c59c21de444dabf083283e38f5f2_6.zip'
p136
aS'http://gis.michigan.opendata.arcgis.com/datasets/3e28c59c21de444dabf083283e38f5f2_6'
p137
aS'https://gisago.mcgi.state.mi.us/arcgis/rest/services/DNR/dnrHuntableLands/MapServer/6'
p138
ag8
ag12
ag8
ag8
aS'State of  Michigan GIS Open Data'
p139
aS'State of  Michigan GIS Open Data'
p140
aS'StateParksHuntableLands'
p141
aa(lp142
S'http://gis.michigan.opendata.arcgis.com/datasets/15e877c2147241b0a116ccd5bf329d0d_5'
p143
aS'168566'
p144
aS'Stream Rivers Assessment Units'
p145
aS'Michigan Stream Rivers Assessment Units More Metadata'
p146
aS'hydro###michigan'
p147
aS'Michigan'
p148
aS'geoscientificInformationinlandWaters'
p149
aS'http://gis.michigan.opendata.arcgis.com/datasets/15e877c2147241b0a116ccd5bf329d0d_5.zip'
p150
aS'http://gis.michigan.opendata.arcgis.com/datasets/15e877c2147241b0a116ccd5bf329d0d_5'
p151
aS'https://gisago.mcgi.state.mi.us/arcgis/rest/services/OpenData/hydro/MapServer/5'
p152
ag8
ag12
ag8
ag8
aS'State of  Michigan GIS Open Data'
p153
aS'State of  Michigan GIS Open Data'
p154
aS'StreamRiversAssessmentUnits'
p155
aa(lp156
S'http://gis.michigan.opendata.arcgis.com/datasets/d4ed229624bd4f24896433a6994eb7b6_31'
p157
aS'168570'
p158
aS'Spruce Budworm 2015'
p159
aS'Spruce Budworm 2015 includes the areas derived from the Aerial Survey analysis completed by the US Forest Service and the Michigan Department of Natural Resources.'
p160
aS'dnr###forestry'
p161
aS'Michigan'
p162
aS'economy'
p163
aS'http://gis.michigan.opendata.arcgis.com/datasets/d4ed229624bd4f24896433a6994eb7b6_31.zip'
p164
aS'http://gis.michigan.opendata.arcgis.com/datasets/d4ed229624bd4f24896433a6994eb7b6_31'
p165
aS'https://gisago.mcgi.state.mi.us/arcgis/rest/services/DNR/dnrForestPlanning/MapServer/31'
p166
ag8
ag12
ag8
ag8
aS'State of  Michigan GIS Open Data'
p167
aS'State of  Michigan GIS Open Data'
p168
aS'SpruceBudworm2015'
p169
aa(lp170
S'http://gis.michigan.opendata.arcgis.com/datasets/6e2557fee97f44a5802b0cc70a9f1e6f_28'
p171
aS'168573'
p172
aS'Spruce Budworm 2012'
p173
aS'Spruce Budworm 2012 includes the areas derived from the Aerial Survey analysis completed by the US Forest Service and the Michigan Department of Natural Resources.'
p174
aS'dnr###forestry'
p175
aS'Michigan'
p176
aS'economy'
p177
aS'http://gis.michigan.opendata.arcgis.com/datasets/6e2557fee97f44a5802b0cc70a9f1e6f_28.zip'
p178
aS'http://gis.michigan.opendata.arcgis.com/datasets/6e2557fee97f44a5802b0cc70a9f1e6f_28'
p179
aS'https://gisago.mcgi.state.mi.us/arcgis/rest/services/DNR/dnrForestPlanning/MapServer/28'
p180
ag8
ag12
ag8
ag8
aS'State of  Michigan GIS Open Data'
p181
aS'State of  Michigan GIS Open Data'
p182
aS'SpruceBudworm2012'
p183
aa(lp184
S'http://gis.michigan.opendata.arcgis.com/datasets/4ddd5955087e477588c64b2c78779b3c_29'
p185
aS'168572'
p186
aS'Spruce Budworm 2013'
p187
aS'Spruce Budworm 2013 includes the areas derived from the Aerial Survey analysis completed by the US Forest Service and the Michigan Department of Natural Resources.'
p188
aS'dnr###forestry'
p189
aS'Michigan'
p190
aS'economy'
p191
aS'http://gis.michigan.opendata.arcgis.com/datasets/4ddd5955087e477588c64b2c78779b3c_29.zip'
p192
aS'http://gis.michigan.opendata.arcgis.com/datasets/4ddd5955087e477588c64b2c78779b3c_29'
p193
aS'https://gisago.mcgi.state.mi.us/arcgis/rest/services/DNR/dnrForestPlanning/MapServer/29'
p194
ag8
ag12
ag8
ag8
aS'State of  Michigan GIS Open Data'
p195
aS'State of  Michigan GIS Open Data'
p196
aS'SpruceBudworm2013'
p197
aa(lp198
S'http://gis.michigan.opendata.arcgis.com/datasets/c2cc749ef68343baacf7476a897a1232_30'
p199
aS'168571'
p200
aS'Spruce Budworm 2014'
p201
aS'Spruce Budworm 2014 includes the areas derived from the Aerial Survey analysis completed by the US Forest Service and the Michigan Department of Natural Resources.'
p202
aS'dnr###forestry'
p203
aS'Michigan'
p204
aS'economy'
p205
aS'http://gis.michigan.opendata.arcgis.com/datasets/c2cc749ef68343baacf7476a897a1232_30.zip'
p206
aS'http://gis.michigan.opendata.arcgis.com/datasets/c2cc749ef68343baacf7476a897a1232_30'
p207
aS'https://gisago.mcgi.state.mi.us/arcgis/rest/services/DNR/dnrForestPlanning/MapServer/30'
p208
ag8
ag12
ag8
ag8
aS'State of  Michigan GIS Open Data'
p209
aS'State of  Michigan GIS Open Data'
p210
aS'SpruceBudworm2014'
p211
aa(lp212
S'http://gis.michigan.opendata.arcgis.com/datasets/03eb45ec40e5417d963703f840ed7d44_26'
p213
aS'168575'
p214
aS'Spruce Budworm 2010'
p215
aS'Spruce Budworm 2010 includes the areas derived from the Aerial Survey analysis completed by the US Forest Service and the Michigan Department of Natural Resources.'
p216
aS'dnr###forestry'
p217
aS'Michigan'
p218
aS'economy'
p219
aS'http://gis.michigan.opendata.arcgis.com/datasets/03eb45ec40e5417d963703f840ed7d44_26.zip'
p220
aS'http://gis.michigan.opendata.arcgis.com/datasets/03eb45ec40e5417d963703f840ed7d44_26'
p221
aS'https://gisago.mcgi.state.mi.us/arcgis/rest/services/DNR/dnrForestPlanning/MapServer/26'
p222
ag8
ag12
ag8
ag8
aS'State of  Michigan GIS Open Data'
p223
aS'State of  Michigan GIS Open Data'
p224
aS'SpruceBudworm2010'
p225
aa(lp226
S'http://gis.michigan.opendata.arcgis.com/datasets/99dfcdf0b8e9456bb2e8fd08bff6218e_27'
p227
aS'168574'
p228
aS'Spruce Budworm 2011'
p229
aS'Spruce Budworm 2011 includes the areas derived from the Aerial Survey analysis completed by the US Forest Service and the Michigan Department of Natural Resources.'
p230
aS'dnr###forestry'
p231
aS'Michigan'
p232
aS'economy'
p233
aS'http://gis.michigan.opendata.arcgis.com/datasets/99dfcdf0b8e9456bb2e8fd08bff6218e_27.zip'
p234
aS'http://gis.michigan.opendata.arcgis.com/datasets/99dfcdf0b8e9456bb2e8fd08bff6218e_27'
p235
aS'https://gisago.mcgi.state.mi.us/arcgis/rest/services/DNR/dnrForestPlanning/MapServer/27'
p236
ag8
ag12
ag8
ag8
aS'State of  Michigan GIS Open Data'
p237
aS'State of  Michigan GIS Open Data'
p238
aS'SpruceBudworm2011'
p239
aa(lp240
S'http://gis.michigan.opendata.arcgis.com/datasets/a38c78e853344d2692878360615e60fe_25'
p241
aS'168576'
p242
aS'Spruce Budworm 2009'
p243
aS'Spruce Budworm 2009 includes the areas derived from the Aerial Survey analysis completed by the US Forest Service and the Michigan Department of Natural Resources.'
p244
aS'dnr###forestry'
p245
aS'Michigan'
p246
aS'economy'
p247
aS'http://gis.michigan.opendata.arcgis.com/datasets/a38c78e853344d2692878360615e60fe_25.zip'
p248
aS'http://gis.michigan.opendata.arcgis.com/datasets/a38c78e853344d2692878360615e60fe_25'
p249
aS'https://gisago.mcgi.state.mi.us/arcgis/rest/services/DNR/dnrForestPlanning/MapServer/25'
p250
ag8
ag12
ag8
ag8
aS'State of  Michigan GIS Open Data'
p251
aS'State of  Michigan GIS Open Data'
p252
aS'SpruceBudworm2009'
p253
aa(lp254
S'http://gis.michigan.opendata.arcgis.com/datasets/c8e3db99daa44e97be26f608c9e9b9e7_24'
p255
aS'168577'
p256
aS'Spruce Budworm 2008'
p257
aS'Spruce Budworm 2008 includes the areas derived from the Aerial Survey analysis completed by the US Forest Service and the Michigan Department of Natural Resources.'
p258
aS'dnr###forestry'
p259
aS'Michigan'
p260
aS'economy'
p261
aS'http://gis.michigan.opendata.arcgis.com/datasets/c8e3db99daa44e97be26f608c9e9b9e7_24.zip'
p262
aS'http://gis.michigan.opendata.arcgis.com/datasets/c8e3db99daa44e97be26f608c9e9b9e7_24'
p263
aS'https://gisago.mcgi.state.mi.us/arcgis/rest/services/DNR/dnrForestPlanning/MapServer/24'
p264
ag8
ag12
ag8
ag8
aS'State of  Michigan GIS Open Data'
p265
aS'State of  Michigan GIS Open Data'
p266
aS'SpruceBudworm2008'
p267
aa(lp268
S'http://gis.michigan.opendata.arcgis.com/datasets/80e88bdd52d848108a1e68a774c91759_22'
p269
aS'168579'
p270
aS'Spruce Budworm 2006'
p271
aS'Spruce Budworm 2006 includes the areas derived from the Aerial Survey analysis completed by the US Forest Service and the Michigan Department of Natural Resources.'
p272
aS'dnr###forestry'
p273
aS'Michigan'
p274
aS'economy'
p275
aS'http://gis.michigan.opendata.arcgis.com/datasets/80e88bdd52d848108a1e68a774c91759_22.zip'
p276
aS'http://gis.michigan.opendata.arcgis.com/datasets/80e88bdd52d848108a1e68a774c91759_22'
p277
aS'https://gisago.mcgi.state.mi.us/arcgis/rest/services/DNR/dnrForestPlanning/MapServer/22'
p278
ag8
ag12
ag8
ag8
aS'State of  Michigan GIS Open Data'
p279
aS'State of  Michigan GIS Open Data'
p280
aS'SpruceBudworm2006'
p281
aa(lp282
S'http://gis.michigan.opendata.arcgis.com/datasets/d617c3bceedb4521b5f500a863ae3712_23'
p283
aS'168578'
p284
aS'Spruce Budworm 2007'
p285
aS'Spruce Budworm 2007 includes the areas derived from the Aerial Survey analysis completed by the US Forest Service and the Michigan Department of Natural Resources.'
p286
aS'dnr###forestry'
p287
aS'Michigan'
p288
aS'economy'
p289
aS'http://gis.michigan.opendata.arcgis.com/datasets/d617c3bceedb4521b5f500a863ae3712_23.zip'
p290
aS'http://gis.michigan.opendata.arcgis.com/datasets/d617c3bceedb4521b5f500a863ae3712_23'
p291
aS'https://gisago.mcgi.state.mi.us/arcgis/rest/services/DNR/dnrForestPlanning/MapServer/23'
p292
ag8
ag12
ag8
ag8
aS'State of  Michigan GIS Open Data'
p293
aS'State of  Michigan GIS Open Data'
p294
aS'SpruceBudworm2007'
p295
aa(lp296
S'http://gis.michigan.opendata.arcgis.com/datasets/93f6f6c002de43d38c8b5c764082b119_18'
p297
aS'168583'
p298
aS'Spruce Budworm 2002'
p299
aS'Spruce Budworm 2002 includes the areas derived from the Aerial Survey analysis completed by the US Forest Service and the Michigan Department of Natural Resources.'
p300
aS'dnr###forestry'
p301
aS'Michigan'
p302
aS'economy'
p303
aS'http://gis.michigan.opendata.arcgis.com/datasets/93f6f6c002de43d38c8b5c764082b119_18.zip'
p304
aS'http://gis.michigan.opendata.arcgis.com/datasets/93f6f6c002de43d38c8b5c764082b119_18'
p305
aS'https://gisago.mcgi.state.mi.us/arcgis/rest/services/DNR/dnrForestPlanning/MapServer/18'
p306
ag8
ag12
ag8
ag8
aS'State of  Michigan GIS Open Data'
p307
aS'State of  Michigan GIS Open Data'
p308
aS'SpruceBudworm2002'
p309
aa(lp310
S'http://gis.michigan.opendata.arcgis.com/datasets/00b84d92d52940a39b3dfe48fc48c530_19'
p311
aS'168582'
p312
aS'Spruce Budworm 2003'
p313
aS'Spruce Budworm 2003 includes the areas derived from the Aerial Survey analysis completed by the US Forest Service and the Michigan Department of Natural Resources.'
p314
aS'dnr###forestry'
p315
aS'Michigan'
p316
aS'economy'
p317
aS'http://gis.michigan.opendata.arcgis.com/datasets/00b84d92d52940a39b3dfe48fc48c530_19.zip'
p318
aS'http://gis.michigan.opendata.arcgis.com/datasets/00b84d92d52940a39b3dfe48fc48c530_19'
p319
aS'https://gisago.mcgi.state.mi.us/arcgis/rest/services/DNR/dnrForestPlanning/MapServer/19'
p320
ag8
ag12
ag8
ag8
aS'State of  Michigan GIS Open Data'
p321
aS'State of  Michigan GIS Open Data'
p322
aS'SpruceBudworm2003'
p323
aa(lp324
S'http://gis.michigan.opendata.arcgis.com/datasets/0e78979ab94648b8b5e34759bbdc8cf2_5'
p325
aS'168651'
p326
aS'Michigan Commercial Forest Act Lands'
p327
aS'There is no description available.'
p328
aS'dnr###forestry'
p329
aS'Michigan'
p330
aS'economy'
p331
aS'http://gis.michigan.opendata.arcgis.com/datasets/0e78979ab94648b8b5e34759bbdc8cf2_5.zip'
p332
aS'http://gis.michigan.opendata.arcgis.com/datasets/0e78979ab94648b8b5e34759bbdc8cf2_5'
p333
aS'https://gisago.mcgi.state.mi.us/arcgis/rest/services/DNR/dnrForestry/MapServer/5'
p334
ag8
ag12
ag8
ag8
aS'State of  Michigan GIS Open Data'
p335
aS'State of  Michigan GIS Open Data'
p336
aS'MichiganCommercialForestActLands'
p337
aa(lp338
S'http://gis.michigan.opendata.arcgis.com/datasets/6da7e54b0fcb4d3dbf074a4838a1e886_32'
p339
aS'168650'
p340
aS'Michigan Deer Wintering Complexes'
p341
aS'Deer Wintering Complexes are areas with deer habitat and are prone to deer browse.'
p342
aS'wildlife###dnr'
p343
aS'Michigan'
p344
aS'biota'
p345
aS'http://gis.michigan.opendata.arcgis.com/datasets/6da7e54b0fcb4d3dbf074a4838a1e886_32.zip'
p346
aS'http://gis.michigan.opendata.arcgis.com/datasets/6da7e54b0fcb4d3dbf074a4838a1e886_32'
p347
aS'https://gisago.mcgi.state.mi.us/arcgis/rest/services/DNR/dnrForestPlanning/MapServer/32'
p348
ag8
ag12
ag8
ag8
aS'State of  Michigan GIS Open Data'
p349
aS'State of  Michigan GIS Open Data'
p350
aS'MichiganDeerWinteringComplexes'
p351
aa(lp352
S'http://gis.michigan.opendata.arcgis.com/datasets/f0b0a3c3aee64cff9908f138de9390b8_5'
p353
aS'168654'
p354
aS'Metropolitan Planning Organizations (MPO)'
p355
aS'Metropolitan Planning Organizations (MPO) are boundaries that define specific urbanized areas along with adjacent municipalities that are accepted into the MPO. MPOs serve as localized areas for transportation planning and forecasting traffic demand models. Please see the MDOT Metadata Form for additional information. Update Cycle: The MPO boundaries are updated every census release. They were last updated after the 2010 census. Coverage: This layer is complete in its coverage of all State of Michigan Metropolitan Planning Organizations. Contact: Pam Boyd & John Lanum'
p356
aS'michigan###transportation###mi###open data###mdot###boundary###planning###metropolitan'
p357
aS'Michigan'
p358
aS'transportationplanningCadastreintelligenceMilitary'
p359
aS'http://gis.michigan.opendata.arcgis.com/datasets/f0b0a3c3aee64cff9908f138de9390b8_5.zip'
p360
aS'http://gis.michigan.opendata.arcgis.com/datasets/f0b0a3c3aee64cff9908f138de9390b8_5'
p361
aS'https://gisago.mcgi.state.mi.us/arcgis/rest/services/MDOT/mdot_boundaries/MapServer/5'
p362
ag8
ag12
ag8
ag8
aS'State of  Michigan GIS Open Data'
p363
aS'State of  Michigan GIS Open Data'
p364
aS'MetropolitanPlanningOrganizationsMPO'
p365
aa(lp366
S'http://gis.michigan.opendata.arcgis.com/datasets/b52cd98bb02047ca8927eec8879726ef_5'
p367
aS'168653'
p368
aS'Michigan Bedrock Geology'
p369
aS'Bedrock geology polygons as digitized from the 1987 Michigan Bedrock Geology map .'
p370
aS'Mineral###bedrock###geology###dnr'
p371
aS'Michigan'
p372
aS'geoscientificInformationgeoscientificInformation'
p373
aS'http://gis.michigan.opendata.arcgis.com/datasets/b52cd98bb02047ca8927eec8879726ef_5.zip'
p374
aS'http://gis.michigan.opendata.arcgis.com/datasets/b52cd98bb02047ca8927eec8879726ef_5'
p375
aS'https://gisago.mcgi.state.mi.us/arcgis/rest/services/DNR/dnrMinerals/MapServer/5'
p376
ag8
ag12
ag8
ag8
aS'State of  Michigan GIS Open Data'
p377
aS'State of  Michigan GIS Open Data'
p378
aS'MichiganBedrockGeology'
p379
aa(lp380
S'http://gis.michigan.opendata.arcgis.com/datasets/b9afc53f7fab4a2cb6a51f8a4c62bc5b_5'
p381
aS'168656'
p382
aS'MDOT Regions'
p383
aS'"The MDOT Region layer represents MDOT\xces seven regions that each handle transportation-related construction, maintenance and programs within each region\xces geographic boundaries. Region offices are managed by professional engineers who are trained to direct and oversee the transportation activities and programs of their respective regions. Please see the MDOT Metadata Form for additional information. Update Cycle: MDOT Regions are static boundaries. Coverage: This inventory is complete in its coverage. Contact: Kevin McKnight, mcknightk@michigan.gov"'
p384
aS'boundaries###michigan###transportation###mi###open data###mdot###regions'
p385
aS'Michigan'
p386
aS'transportationintelligenceMilitaryboundaries'
p387
aS'http://gis.michigan.opendata.arcgis.com/datasets/b9afc53f7fab4a2cb6a51f8a4c62bc5b_5.zip'
p388
aS'http://gis.michigan.opendata.arcgis.com/datasets/b9afc53f7fab4a2cb6a51f8a4c62bc5b_5'
p389
aS'https://gisago.mcgi.state.mi.us/arcgis/rest/services/MDOT/mdot_opendata/MapServer/5'
p390
ag8
ag12
ag8
ag8
aS'State of  Michigan GIS Open Data'
p391
aS'State of  Michigan GIS Open Data'
p392
aS'MDOTRegions'
p393
aa(lp394
S'http://gis.michigan.opendata.arcgis.com/datasets/1cff3fb9102143eda12955b936edb110_7'
p395
aS'168655'
p396
aS'MDOT Regions of Prosperity (RPI) Regions'
p397
aS'"In an effort to align the seven MDOT regions with the 10 Prosperity Regions as part of Governor Synder\'s Regional Prosperity Initiative (RPI), MDOT has established these new region boundaries. Please see the MDOT Metadata Form for additional information. Update Cycle: Michigan RPI Boundaries are static boundaries. Coverage: This is the official boundary delineation for MDOT RPI Regions Contact: Brad Winkler"'
p398
aS'michigan###transportation###mi###rpi###open data###mdot###regions###boundary###prosperity'
p399
aS'Michigan'
p400
aS'transportationintelligenceMilitary'
p401
aS'http://gis.michigan.opendata.arcgis.com/datasets/1cff3fb9102143eda12955b936edb110_7.zip'
p402
aS'http://gis.michigan.opendata.arcgis.com/datasets/1cff3fb9102143eda12955b936edb110_7'
p403
aS'https://gisago.mcgi.state.mi.us/arcgis/rest/services/MDOT/mdot_opendata/MapServer/7'
p404
ag8
ag12
ag8
ag8
aS'State of  Michigan GIS Open Data'
p405
aS'State of  Michigan GIS Open Data'
p406
aS'MDOTRegionsofProsperityRPIRegions'
p407
aa(lp408
S'http://gis.michigan.opendata.arcgis.com/datasets/a61e2b1670b74c67b920a90c0b92cef0_8'
p409
aS'168659'
p410
aS'MDOT Guardrail'
p411
aS'"This data represents MDOT owned and maintained guardrail collected using a handheld GPS unit. Full limits of guardrail were inventoried along trunkline, including within medians and ramps. On Local Roads over / under trunkline, the inventory is limited to no more than 200 feet from the bridge railing end / from the pier or abutment, respectfully. Please see the MDOT Metadata Form for additional information. Update Cycle: The last statewide guardrail update was completed in 2006. Region-wide updates have occurred in both Southwest Region and University Region in 2015. Updates are added as they become available. Data Quality: This data set is in production and is accessed through desktop GIS, map services, and feature services. Data was collected by region using Trimble GEO XT and other similar units. Coverage: This inventory was collected to over 95% competition in 2006. Any assets added, removed, or changed since then may not be part of this inventory. Symbology: The preferred symbology for this asset in a map service is a line of width \\""3\\"" and an RGB color of \\""0,92,230\\"". Contact: Kevin McKnight, mcknightk@michigan.gov"'
p412
aS'guardrail###michigan###assets###transportation###mi###mdot###cable'
p413
aS'Michigan'
p414
aS'transportationintelligenceMilitary'
p415
aS'http://gis.michigan.opendata.arcgis.com/datasets/a61e2b1670b74c67b920a90c0b92cef0_8.zip'
p416
aS'http://gis.michigan.opendata.arcgis.com/datasets/a61e2b1670b74c67b920a90c0b92cef0_8'
p417
aS'https://gisago.mcgi.state.mi.us/arcgis/rest/services/MDOT/mdot_assets/MapServer/8'
p418
ag8
ag12
ag8
ag8
aS'State of  Michigan GIS Open Data'
p419
aS'State of  Michigan GIS Open Data'
p420
aS'MDOTGuardrail'
p421
aa(lp422
S'http://gis.michigan.opendata.arcgis.com/datasets/796ee43a52a54a71a716d9a5af7ec56f_2'
p423
aS'168658'
p424
aS'MDOT Maintenance Responsibility'
p425
aS'"The Maintenance Responsibility layer is a delineation of which entities are responsible for maintenance on Michigan Trunkline routes. This information enables MDOT to track and compare the costs of doing business between the various parties responsible for maintenance. These parties include MDOT maintenance garages, county road commissions, cities, and bridge authorities. Please see the MDOT Metadata Form for additional information. Update Cycle: Maintenance Responsibility is updated on an annual basis in conjunction with the Lane Mile Inventory (LMI) release and is based on the new framework version. Any additional changes to the data are provided by the data owner to DOGMA staff for inclusion that year. Coverage: This inventory is complete in its coverage of all State of Michigan trunkline roadways. Symbology: The symbology for the Maintenance Responsibility layer is categorized using the \\""MAINTENANCE\\"" field and grouped by MDOT, County, and Local Agency services with different colors for each and a size 2 line. An ArcGIS layer file (.lyr) exists for this data set. Contact: Margaret Kramer, kramerm@michigan.gov"'
p426
aS'michigan###maintenance responsibility###assets###transportation###plow###snow###mi###open data###mdot###salt###winter'
p427
aS'Michigan'
p428
aS'transportationintelligenceMilitary'
p429
aS'http://gis.michigan.opendata.arcgis.com/datasets/796ee43a52a54a71a716d9a5af7ec56f_2.zip'
p430
aS'http://gis.michigan.opendata.arcgis.com/datasets/796ee43a52a54a71a716d9a5af7ec56f_2'
p431
aS'https://gisago.mcgi.state.mi.us/arcgis/rest/services/MDOT/mdot_opendata/MapServer/2'
p432
ag8
ag12
ag8
ag8
aS'State of  Michigan GIS Open Data'
p433
aS'State of  Michigan GIS Open Data'
p434
aS'MDOTMaintenanceResponsibility'
p435
aa(lp436
S'http://gis.michigan.opendata.arcgis.com/datasets/6319ec2d8bb445e990881c5fd9c4d198_3'
p437
aS'168657'
p438
aS'MDOT Lane Mile Inventory (LMI)'
p439
aS'"The Lane Mile Inventory is a GPS assisted windshield survey data collection of the number of lanes on any given segment of Michigan state highway (trunkline). Another description could refer to it as a \\""striped lane mile inventory\\"". The definition of a lane mile is \\""one mile of roadway that is intended for driving\\"". The LMI supports the delivery of annual maintenance and capital funds to MDOT\'s regions. Attributes that are collected with this effort are number of lanes, lane function, maintenance responsibility, road type, speed limit, bike lanes, on street parking, and sidewalks. Please see the MDOT Metadata Form for additional information. Update Cycle: The yearly release of the LMI represents changes to the existing roadway (number of drivable lanes) that are submitted by the regions from new projects every year. The entire system is updated on a 5-year cycle. Data Quality: Data is collected to +/- 25ft accuracy using a laptop equipped with ArcGIS Desktop and a tethered USB puck GPS unit. Coverage: This inventory is complete in its coverage of all State of Michigan trunkline roadways. Symbology: The symbology for the LMI is categorized using the current \\""LANE_YEAR\\"" field with different colors for each lane number and a size 2 line. Contact: Kevin McKnight, mcknightk@michigan.gov"'
p440
aS'lanes###lane mile inventory###michigan###lmi###assets###transportation###mi###open data###mdot'
p441
aS'Michigan'
p442
aS'transportationintelligenceMilitary'
p443
aS'http://gis.michigan.opendata.arcgis.com/datasets/6319ec2d8bb445e990881c5fd9c4d198_3.zip'
p444
aS'http://gis.michigan.opendata.arcgis.com/datasets/6319ec2d8bb445e990881c5fd9c4d198_3'
p445
aS'https://gisago.mcgi.state.mi.us/arcgis/rest/services/MDOT/mdot_opendata/MapServer/3'
p446
ag8
ag12
ag8
ag8
aS'State of  Michigan GIS Open Data'
p447
aS'State of  Michigan GIS Open Data'
p448
aS'MDOTLaneMileInventoryLMI'
p449
aa(lp450
S'http://gis.michigan.opendata.arcgis.com/datasets/37c9d44bf04c446f992a79f7c2177b62_10'
p451
aS'168663'
p452
aS'MDOT Bridge Connections'
p453
aS'"The bridge connection layer is a statewide inventory of the bridge mounted signs installed on MDOT bridges, railroad bridges and local bridges within MDOT\xces jurisdiction. The data is used to populate the MiBridge System for bridge mounted signs inspection, for designers to determine existing bridge and bridge mounted sign information when upgrading overhead signs attached to bridges, and for contractors when performing installation of bridge mounted signs. Please see the MDOT Metadata Form for additional information. Update Cycle: Bridge Connections inventory was last updated on April 3, 2015 as part of the initial inventory conducted by a signing pre-qualified consultant, OHM. Updates are anticipated, but a schedule and time line are still being developed. Data Quality: The inventory effort utilized tablets with Trimble Terraflex software to collect the bridge connection locations, attributes, and photos. This is the final project deliverable from the consultant. Coverage: This inventory is complete in its coverage of all bridge connections on State of Michigan trunkline roads. Contact: Alonso Uzcategui"'
p454
aS'mounted###michigan###signs###assets###transportation###connections###mi###open data###bridge###mdot'
p455
aS'Michigan'
p456
aS'transportationintelligenceMilitary'
p457
aS'http://gis.michigan.opendata.arcgis.com/datasets/37c9d44bf04c446f992a79f7c2177b62_10.zip'
p458
aS'http://gis.michigan.opendata.arcgis.com/datasets/37c9d44bf04c446f992a79f7c2177b62_10'
p459
aS'https://gisago.mcgi.state.mi.us/arcgis/rest/services/MDOT/mdot_opendata/MapServer/10'
p460
ag8
ag12
ag8
ag8
aS'State of  Michigan GIS Open Data'
p461
aS'State of  Michigan GIS Open Data'
p462
aS'MDOTBridgeConnections'
p463
aa(lp464
S'http://gis.michigan.opendata.arcgis.com/datasets/ce9185c78b77417a8f185a281267ef11_8'
p465
aS'168662'
p466
aS'MDOT Five Year Transportation Program (5YTP) - Bridges'
p467
aS'"The Five-Year Transportation Program (5YTP) is an annual document listing road and bridge projects planned for the next five years. A snapshot of 5YTP projects is produced annually and presented for approval to the State Transportation Commission. The 5YTP snapshot is later archived and the document is posted on MDOT\xces Web site. A Web-based interactive state map is available which plots individual projects for the public to easily view. Please see the MDOT Metadata Form for additional information or visit the 5YTP Website . Update Cycle: The Five Year Transportation Program (5YTP) layer was last updated in January 2016 and is updated on an annual basis. Data Quality: The GIS layer is generated from MDOT\xces MAP database 5YTP archive snapshot. Coverage: This layer covers all projects in the current 5YTP snapshot. Contact: Eric Mullen, mullene@michigan.gov"'
p468
aS'mdot###open data###transportation###plan###michigan###five###5YTP###planning###bridges###mi###program'
p469
aS'Michigan'
p470
aS'transportationplanningCadastreintelligenceMilitaryfarming'
p471
aS'http://gis.michigan.opendata.arcgis.com/datasets/ce9185c78b77417a8f185a281267ef11_8.zip'
p472
aS'http://gis.michigan.opendata.arcgis.com/datasets/ce9185c78b77417a8f185a281267ef11_8'
p473
aS'https://gisago.mcgi.state.mi.us/arcgis/rest/services/MDOT/mdot_opendata/MapServer/8'
p474
ag8
ag12
ag8
ag8
aS'State of  Michigan GIS Open Data'
p475
aS'State of  Michigan GIS Open Data'
p476
aS'MDOTFiveYearTransportationProgram5YTPBridges'
p477
aa(lp478
S'http://gis.michigan.opendata.arcgis.com/datasets/a1924d4046834f3dbe9499d0e7df7b62_12'
p479
aS'168661'
p480
aS'MDOT Cargo Ports'
p481
aS'"MDOT\xces Cargo Ports layer includes location and in/outbound tonnage for each cargo port. The data is used for the state long range plan, freight planning, economic analysis studies, and for various requests from local agencies. Please see the MDOT Metadata Form for additional information. Update Cycle: Data is upgraded about every 9 months and is subject to the Army Corp of Engineers (ACOE) data release. Data Quality: Cargo ports are contacted by MDOT for updates if they are not in the ACOE data. Coverage: This inventory contains all cargo port locations and tonnage except for tonnage from the cargo port in Brevort that does not report tonnage data. Contact: Jesse Gwilliams, gwilliamsj@michigan.gov"'
p482
aS'mdot###michigan###ports###facilities###mi###cargo###open data###transportation'
p483
aS'Michigan'
p484
aS'transportationintelligenceMilitary'
p485
aS'http://gis.michigan.opendata.arcgis.com/datasets/a1924d4046834f3dbe9499d0e7df7b62_12.zip'
p486
aS'http://gis.michigan.opendata.arcgis.com/datasets/a1924d4046834f3dbe9499d0e7df7b62_12'
p487
aS'http://gisago.mcgi.state.mi.us/arcgis/rest/services/MDOT/mdot_opendata/MapServer/12'
p488
ag8
ag12
ag8
ag8
aS'State of  Michigan GIS Open Data'
p489
aS'State of  Michigan GIS Open Data'
p490
aS'MDOTCargoPorts'
p491
aa(lp492
S'http://gis.michigan.opendata.arcgis.com/datasets/ef46fd744ebf46cd966780ce1913e4db_9'
p493
aS'168660'
p494
aS'MDOT Five Year Transportation Program (5YTP) - Roads'
p495
aS'"The Five-Year Transportation Program (5YTP) is an annual document listing road and bridge projects planned for the next five years. A snapshot of 5YTP projects is produced annually and presented for approval to the State Transportation Commission. The 5YTP snapshot is later archived and the document is posted on MDOT\xces Web site. A Web-based interactive state map is available which plots individual projects for the public to easily view. Please see the MDOT Metadata Form for additional information or visit the 5YTP Website . Update Cycle: The Five Year Transportation Program (5YTP) layer was last updated in January 2016 and is updated on an annual basis. Data Quality: The GIS layer is generated from MDOT\xces MAP database 5YTP archive snapshot. Coverage: This layer covers all projects in the current 5YTP snapshot. Contact: Eric Mullen, mullene@michigan.gov"'
p496
aS'five###open data###michigan###program###plan###5YTP###transportation###mi###roads###planning###mdot'
p497
aS'Michigan'
p498
aS'transportationplanningCadastreintelligenceMilitaryfarming'
p499
aS'http://gis.michigan.opendata.arcgis.com/datasets/ef46fd744ebf46cd966780ce1913e4db_9.zip'
p500
aS'http://gis.michigan.opendata.arcgis.com/datasets/ef46fd744ebf46cd966780ce1913e4db_9'
p501
aS'https://gisago.mcgi.state.mi.us/arcgis/rest/services/MDOT/mdot_opendata/MapServer/9'
p502
ag8
ag12
ag8
ag8
aS'State of  Michigan GIS Open Data'
p503
aS'State of  Michigan GIS Open Data'
p504
aS'MDOTFiveYearTransportationProgram5YTPRoads'
p505
aa(lp506
S'http://gis.michigan.opendata.arcgis.com/datasets/a25b7114d233496eaece59a23e31f4b2_0'
p507
aS'168664'
p508
aS'Master Plan Neighborhoods, Detroit'
p509
aS'There is no description available.'
p510
aS'Detroit###Neighborhoods###Property Land Use and Housing###Master Plan'
p511
aS'Michigan'
p512
ag8
aS'http://gis.michigan.opendata.arcgis.com/datasets/a25b7114d233496eaece59a23e31f4b2_0.zip'
p513
aS'http://gis.michigan.opendata.arcgis.com/datasets/a25b7114d233496eaece59a23e31f4b2_0'
p514
aS'https://services2.arcgis.com/HsXtOCMp1Nis1Ogr/arcgis/rest/services/Detroit_Master_Plan_Neighborhoods/FeatureServer/0'
p515
ag8
ag12
ag8
ag8
aS'State of  Michigan GIS Open Data'
p516
aS'State of  Michigan GIS Open Data'
p517
aS'MasterPlanNeighborhoodsDetroit'
p518
aa(lp519
S'http://gis.michigan.opendata.arcgis.com/datasets/dc9e1971f2064826b299bc26e0aaeca3_15'
p520
aS'168665'
p521
aS'Major Watersheds-Subbasins'
p522
aS'This data set depicts the drainage areas of 20 square miles or greater at geographic features such as the mouth of a river or the location of a USGS stream flow collection station. It is used to determine hydrologic parameters for determining a range of flows in watershed analysis. More Metadata'
p523
aS'hydro###michigan'
p524
aS'Michigan'
p525
aS'geoscientificInformationinlandWaters'
p526
aS'http://gis.michigan.opendata.arcgis.com/datasets/dc9e1971f2064826b299bc26e0aaeca3_15.zip'
p527
aS'http://gis.michigan.opendata.arcgis.com/datasets/dc9e1971f2064826b299bc26e0aaeca3_15'
p528
aS'https://gisago.mcgi.state.mi.us/arcgis/rest/services/OpenData/hydro/MapServer/15'
p529
ag8
ag12
ag8
ag8
aS'State of  Michigan GIS Open Data'
p530
aS'State of  Michigan GIS Open Data'
p531
aS'MajorWatershedsSubbasins'
p532
aa(lp533
S'http://gis.michigan.opendata.arcgis.com/datasets/5bc8f5c20524471abb25484b8bbb56bc_2'
p534
aS'168668'
p535
aS'Lake St. Clair Bathymetric Contours'
p536
aS'Lake St. Clair Bathymetric Contours More Metadata'
p537
aS'elevation###michigan###hydro###topography'
p538
aS'Michigan'
p539
aS'geoscientificInformationinlandWaterselevation'
p540
aS'http://gis.michigan.opendata.arcgis.com/datasets/5bc8f5c20524471abb25484b8bbb56bc_2.zip'
p541
aS'http://gis.michigan.opendata.arcgis.com/datasets/5bc8f5c20524471abb25484b8bbb56bc_2'
p542
aS'https://gisago.mcgi.state.mi.us/arcgis/rest/services/OpenData/elevation/MapServer/2'
p543
ag8
ag12
ag8
ag8
aS'State of  Michigan GIS Open Data'
p544
aS'State of  Michigan GIS Open Data'
p545
aS'LakeStClairBathymetricContours'
p546
aa(lp547
S'http://gis.michigan.opendata.arcgis.com/datasets/8658a5447fb146d28d40bb8e8eeb648b_13'
p548
aS'168667'
p549
aS'Lake St. Clair Shoreline'
p550
aS'Lake St. Clair Shoreline More Metadata'
p551
aS'hydro###michigan'
p552
aS'Michigan'
p553
aS'geoscientificInformationinlandWaters'
p554
aS'http://gis.michigan.opendata.arcgis.com/datasets/8658a5447fb146d28d40bb8e8eeb648b_13.zip'
p555
aS'http://gis.michigan.opendata.arcgis.com/datasets/8658a5447fb146d28d40bb8e8eeb648b_13'
p556
aS'https://gisago.mcgi.state.mi.us/arcgis/rest/services/OpenData/hydro/MapServer/13'
p557
ag8
ag12
ag8
ag8
aS'State of  Michigan GIS Open Data'
p558
aS'State of  Michigan GIS Open Data'
p559
aS'LakeStClairShoreline'
p560
aa(lp561
S'http://gis.michigan.opendata.arcgis.com/datasets/3269b9e0d086429c8472c508fe5ad6bb_2'
p562
aS'168666'
p563
aS'Land Cover Circa 1800'
p564
aS'"Landuse circa 1800 is a statewide database for Michigan based on original surveyors tree data and descriptions of the vegetation and land between 1816 and 1856. This is a fully attributed version that contains all vegetation codes (see attribute information). The database creators recognize that there are errors in the database due to interpretation and data input. Errors of comission and omission may still exist in the current version of the database. For concerns on the use, see the limitations listed below, refer to the references provided, or call the contact for more information. Database has county codes and data in it from IDENTITY process run against the stco100 database. This provides county names and FIPS codes. Ran the ADDAREA command to add area in acres and square miles as well. Please do not redistribute this database - please have requestors contact the source. Also note the version/edition number on this database release. Any future updates or modifications will have a version/edition number assigned. All previous versions/editions should be destroyed or removed to an archive status. Version 1.0 - completed QA/QC Version 1.1 - Annotation removed from all LU1800 databases. More Metadata"'
p565
aS'environment###michigan###geology'
p566
aS'Michigan'
p567
aS'geoscientificInformationenvironmentgeoscientificInformation'
p568
aS'http://gis.michigan.opendata.arcgis.com/datasets/3269b9e0d086429c8472c508fe5ad6bb_2.zip'
p569
aS'http://gis.michigan.opendata.arcgis.com/datasets/3269b9e0d086429c8472c508fe5ad6bb_2'
p570
aS'https://gisago.mcgi.state.mi.us/arcgis/rest/services/OpenData/environment/MapServer/2'
p571
ag8
ag12
ag8
ag8
aS'State of  Michigan GIS Open Data'
p572
aS'State of  Michigan GIS Open Data'
p573
aS'LandCoverCirca1800'
p574
aa(lp575
S'http://gis.michigan.opendata.arcgis.com/datasets/e38a9564839040f2a34272af79084168_23'
p576
aS'168669'
p577
aS'Lake Polygons'
p578
aS'Michigan Lake Polygons More Metadata'
p579
aS'hydro###michigan'
p580
aS'Michigan'
p581
aS'geoscientificInformationinlandWaters'
p582
aS'http://gis.michigan.opendata.arcgis.com/datasets/e38a9564839040f2a34272af79084168_23.zip'
p583
aS'http://gis.michigan.opendata.arcgis.com/datasets/e38a9564839040f2a34272af79084168_23'
p584
aS'https://gisago.mcgi.state.mi.us/arcgis/rest/services/OpenData/hydro/MapServer/23'
p585
ag8
ag12
ag8
ag8
aS'State of  Michigan GIS Open Data'
p586
aS'State of  Michigan GIS Open Data'
p587
aS'LakePolygons'
p588
aa(lp589
S'http://gis.michigan.opendata.arcgis.com/datasets/5e2911231fe246128d0ff8495935ee85_12'
p590
aS'168670'
p591
aS'Lake Michigan Shoreline'
p592
aS'Lake Michigan Shoreline More Metadata'
p593
aS'hydro###michigan'
p594
aS'Michigan'
p595
aS'geoscientificInformationinlandWaters'
p596
aS'http://gis.michigan.opendata.arcgis.com/datasets/5e2911231fe246128d0ff8495935ee85_12.zip'
p597
aS'http://gis.michigan.opendata.arcgis.com/datasets/5e2911231fe246128d0ff8495935ee85_12'
p598
aS'https://gisago.mcgi.state.mi.us/arcgis/rest/services/OpenData/hydro/MapServer/12'
p599
ag8
ag12
ag8
ag8
aS'State of  Michigan GIS Open Data'
p600
aS'State of  Michigan GIS Open Data'
p601
aS'LakeMichiganShoreline'
p602
aa(lp603
S'http://gis.michigan.opendata.arcgis.com/datasets/269f5b90827b49c18a8b8629e2916130_1'
p604
aS'168671'
p605
aS'Lake Michigan Bathymetric Contours'
p606
aS'Lake Michigan Bathymetric Contours More Metadata'
p607
aS'elevation###michigan###hydro###topography'
p608
aS'Michigan'
p609
aS'geoscientificInformationinlandWaterselevation'
p610
aS'http://gis.michigan.opendata.arcgis.com/datasets/269f5b90827b49c18a8b8629e2916130_1.zip'
p611
aS'http://gis.michigan.opendata.arcgis.com/datasets/269f5b90827b49c18a8b8629e2916130_1'
p612
aS'https://gisago.mcgi.state.mi.us/arcgis/rest/services/OpenData/elevation/MapServer/1'
p613
ag8
ag12
ag8
ag8
aS'State of  Michigan GIS Open Data'
p614
aS'State of  Michigan GIS Open Data'
p615
aS'LakeMichiganBathymetricContours'
p616
aa(lp617
S'http://gis.michigan.opendata.arcgis.com/datasets/aea5edbfa8bd43d09775c1fa8c27a520_11'
p618
aS'168672'
p619
aS'Lake Erie Shoreline'
p620
aS'Lake Erie Shoreline More Metadata'
p621
aS'hydro###michigan'
p622
aS'Michigan'
p623
aS'geoscientificInformationinlandWaters'
p624
aS'http://gis.michigan.opendata.arcgis.com/datasets/aea5edbfa8bd43d09775c1fa8c27a520_11.zip'
p625
aS'http://gis.michigan.opendata.arcgis.com/datasets/aea5edbfa8bd43d09775c1fa8c27a520_11'
p626
aS'https://gisago.mcgi.state.mi.us/arcgis/rest/services/OpenData/hydro/MapServer/11'
p627
ag8
ag12
ag8
ag8
aS'State of  Michigan GIS Open Data'
p628
aS'State of  Michigan GIS Open Data'
p629
aS'LakeErieShoreline'
p630
aa(lp631
S'http://gis.michigan.opendata.arcgis.com/datasets/be53c64cd8f349ffbfe9b9418c527419_22'
p632
aS'168675'
p633
aS'Inland Lake Assessment Units'
p634
aS'Michigan Inland Lake Assessment Units More Metadata'
p635
aS'hydro###michigan'
p636
aS'Michigan'
p637
aS'geoscientificInformationinlandWaters'
p638
aS'http://gis.michigan.opendata.arcgis.com/datasets/be53c64cd8f349ffbfe9b9418c527419_22.zip'
p639
aS'http://gis.michigan.opendata.arcgis.com/datasets/be53c64cd8f349ffbfe9b9418c527419_22'
p640
aS'https://gisago.mcgi.state.mi.us/arcgis/rest/services/OpenData/hydro/MapServer/22'
p641
ag8
ag12
ag8
ag8
aS'State of  Michigan GIS Open Data'
p642
aS'State of  Michigan GIS Open Data'
p643
aS'InlandLakeAssessmentUnits'
p644
aa(lp645
S'http://gis.michigan.opendata.arcgis.com/datasets/65085a22e09e432c92d722d85f467f7a_4'
p646
aS'168674'
p647
aS'Inland Lake Contours'
p648
aS'Michigan Inland Lake Contours More Metadata'
p649
aS'hydro###michigan'
p650
aS'Michigan'
p651
aS'geoscientificInformationinlandWaters'
p652
aS'http://gis.michigan.opendata.arcgis.com/datasets/65085a22e09e432c92d722d85f467f7a_4.zip'
p653
aS'http://gis.michigan.opendata.arcgis.com/datasets/65085a22e09e432c92d722d85f467f7a_4'
p654
aS'https://gisago.mcgi.state.mi.us/arcgis/rest/services/OpenData/hydro/MapServer/4'
p655
ag8
ag12
ag8
ag8
aS'State of  Michigan GIS Open Data'
p656
aS'State of  Michigan GIS Open Data'
p657
aS'InlandLakeContours'
p658
aa(lp659
S'http://gis.michigan.opendata.arcgis.com/datasets/dc1289644494437a9f34940269c971b5_0'
p660
aS'168673'
p661
aS'Lake Erie Bathymetric Contours'
p662
aS'Lake Erie Bathymetric Contours More Metadata'
p663
aS'elevation###michigan###hydro###topography'
p664
aS'Michigan'
p665
aS'geoscientificInformationinlandWaterselevation'
p666
aS'http://gis.michigan.opendata.arcgis.com/datasets/dc1289644494437a9f34940269c971b5_0.zip'
p667
aS'http://gis.michigan.opendata.arcgis.com/datasets/dc1289644494437a9f34940269c971b5_0'
p668
aS'https://gisago.mcgi.state.mi.us/arcgis/rest/services/OpenData/elevation/MapServer/0'
p669
ag8
ag12
ag8
ag8
aS'State of  Michigan GIS Open Data'
p670
aS'State of  Michigan GIS Open Data'
p671
aS'LakeErieBathymetricContours'
p672
aa(lp673
S'http://gis.michigan.opendata.arcgis.com/datasets/27134add94a04e4384225734f821a0d7_17'
p674
aS'168676'
p675
aS'Hydrography Polygons'
p676
aS'Michigan Hydrography Polygons More Metadata'
p677
aS'michigan###ponds###hydro###rivers###creeks###lakes###streams###mgf###drains'
p678
aS'Michigan'
p679
aS'inlandWaters'
p680
aS'http://gis.michigan.opendata.arcgis.com/datasets/27134add94a04e4384225734f821a0d7_17.zip'
p681
aS'http://gis.michigan.opendata.arcgis.com/datasets/27134add94a04e4384225734f821a0d7_17'
p682
aS'https://gisago.mcgi.state.mi.us/arcgis/rest/services/OpenData/hydro/MapServer/17'
p683
ag8
ag12
ag8
ag8
aS'State of  Michigan GIS Open Data'
p684
aS'State of  Michigan GIS Open Data'
p685
aS'HydrographyPolygons'
p686
aa(lp687
S'http://gis.michigan.opendata.arcgis.com/datasets/078bf618c3e047ab9358c48f8c735eaa_17'
p688
aS'168680'
p689
aS'House Districts'
p690
aS'House Districts from the Michigan Geographic Framework (MGF) base map. 2011 Apportionment Plan as enacted by PA 129 of 2011. More Metadata'
p691
aS'boundaries###michigan geographic framework###michigan###mgf###political'
p692
aS'Michigan'
p693
aS'boundaries'
p694
aS'http://gis.michigan.opendata.arcgis.com/datasets/078bf618c3e047ab9358c48f8c735eaa_17.zip'
p695
aS'http://gis.michigan.opendata.arcgis.com/datasets/078bf618c3e047ab9358c48f8c735eaa_17'
p696
aS'https://gisago.mcgi.state.mi.us/arcgis/rest/services/OpenData/michigan_geographic_framework/MapServer/17'
p697
ag8
ag12
ag8
ag8
aS'State of  Michigan GIS Open Data'
p698
aS'State of  Michigan GIS Open Data'
p699
aS'HouseDistricts'
p700
aa(lp701
S'http://gis.michigan.opendata.arcgis.com/datasets/45eb3aa7cb014130b0d509b7f51b6918_2'
p702
aS'168679'
p703
aS'Hunter Access Program Land Areas'
p704
aS'"Hunter Access Program Lands include lands managed by private citizens in agreement with the Michigan Department of Natural Resources that are open to public hunting. Please double check with the appropriate agency for specific rules, regulations, and restrictions."'
p705
aS'hunting###hunting land###dnr'
p706
aS'Michigan'
p707
aS'economy'
p708
aS'http://gis.michigan.opendata.arcgis.com/datasets/45eb3aa7cb014130b0d509b7f51b6918_2.zip'
p709
aS'http://gis.michigan.opendata.arcgis.com/datasets/45eb3aa7cb014130b0d509b7f51b6918_2'
p710
aS'https://gisago.mcgi.state.mi.us/arcgis/rest/services/DNR/dnrHuntableLands/MapServer/2'
p711
ag8
ag12
ag8
ag8
aS'State of  Michigan GIS Open Data'
p712
aS'State of  Michigan GIS Open Data'
p713
aS'HunterAccessProgramLandAreas'
p714
aa(lp715
S'http://gis.michigan.opendata.arcgis.com/datasets/0b137b01aa0143b1a63d1a877ee1ce70_1'
p716
aS'168678'
p717
aS'Hunter Access Program Land Locations'
p718
aS'"Hunter Access Program Lands include lands managed by private citizens in agreement with the Michigan Department of Natural Resources that are open to public hunting. Please double check with the appropriate agency for specific rules, regulations, and restrictions."'
p719
aS'hunting###hunting land###dnr'
p720
aS'Michigan'
p721
aS'economy'
p722
aS'http://gis.michigan.opendata.arcgis.com/datasets/0b137b01aa0143b1a63d1a877ee1ce70_1.zip'
p723
aS'http://gis.michigan.opendata.arcgis.com/datasets/0b137b01aa0143b1a63d1a877ee1ce70_1'
p724
aS'https://gisago.mcgi.state.mi.us/arcgis/rest/services/DNR/dnrHuntableLands/MapServer/1'
p725
ag8
ag12
ag8
ag8
aS'State of  Michigan GIS Open Data'
p726
aS'State of  Michigan GIS Open Data'
p727
aS'HunterAccessProgramLandLocations'
p728
aa(lp729
S'http://gis.michigan.opendata.arcgis.com/datasets/f34a4c83afea4736a003e9f92bb0c6c8_2'
p730
aS'168677'
p731
aS'Hydrography Lines'
p732
aS'Michigan Hydrography Lines More Metadata'
p733
aS'michigan###ponds###hydro###rivers###creeks###lakes###streams###mgf###drains'
p734
aS'Michigan'
p735
aS'inlandWaters'
p736
aS'http://gis.michigan.opendata.arcgis.com/datasets/f34a4c83afea4736a003e9f92bb0c6c8_2.zip'
p737
aS'http://gis.michigan.opendata.arcgis.com/datasets/f34a4c83afea4736a003e9f92bb0c6c8_2'
p738
aS'https://gisago.mcgi.state.mi.us/arcgis/rest/services/OpenData/hydro/MapServer/2'
p739
ag8
ag12
ag8
ag8
aS'State of  Michigan GIS Open Data'
p740
aS'State of  Michigan GIS Open Data'
p741
aS'HydrographyLines'
p742
aa(lp743
S'http://gis.michigan.opendata.arcgis.com/datasets/dfc243c810da4794989b1b0f35a6b9f0_27'
p744
aS'168685'
p745
aS'Great Lakes Assessment Units'
p746
aS'Great Lakes Assessment Units More Metadata'
p747
aS'hydro###michigan###deq'
p748
aS'Michigan'
p749
aS'geoscientificInformationinlandWaters'
p750
aS'http://gis.michigan.opendata.arcgis.com/datasets/dfc243c810da4794989b1b0f35a6b9f0_27.zip'
p751
aS'http://gis.michigan.opendata.arcgis.com/datasets/dfc243c810da4794989b1b0f35a6b9f0_27'
p752
aS'https://gisago.mcgi.state.mi.us/arcgis/rest/services/OpenData/hydro/MapServer/27'
p753
ag8
ag12
ag8
ag8
aS'State of  Michigan GIS Open Data'
p754
aS'State of  Michigan GIS Open Data'
p755
aS'GreatLakesAssessmentUnits'
p756
aa(lp757
S'http://gis.michigan.opendata.arcgis.com/datasets/1bc287e1add941f4a983277c4db7b421_2'
p758
aS'168684'
p759
aS'Hemlock Host Species 2008'
p760
aS'Hemlock Host Species 2008 includes the areas derived from the Aerial Survey analysis completed by the US Forest Service and the Michigan Department of Natural Resources.'
p761
aS'dnr###forest planning###forestry'
p762
aS'Michigan'
p763
aS'planningCadastreeconomy'
p764
aS'http://gis.michigan.opendata.arcgis.com/datasets/1bc287e1add941f4a983277c4db7b421_2.zip'
p765
aS'http://gis.michigan.opendata.arcgis.com/datasets/1bc287e1add941f4a983277c4db7b421_2'
p766
aS'https://gisago.mcgi.state.mi.us/arcgis/rest/services/DNR/dnrForestPlanning/MapServer/2'
p767
ag8
ag12
ag8
ag8
aS'State of  Michigan GIS Open Data'
p768
aS'State of  Michigan GIS Open Data'
p769
aS'HemlockHostSpecies2008'
p770
aa(lp771
S'http://gis.michigan.opendata.arcgis.com/datasets/85ccffdf80e34fbc875ba9f0a267b6a4_3'
p772
aS'168683'
p773
aS'Hemlock Host Species 2013'
p774
aS'Hemlock Host Species 2013 includes the areas derived from the Aerial Survey analysis completed by the US Forest Service and the Michigan Department of Natural Resources.'
p775
aS'dnr###forest planning###forestry'
p776
aS'Michigan'
p777
aS'planningCadastreeconomy'
p778
aS'http://gis.michigan.opendata.arcgis.com/datasets/85ccffdf80e34fbc875ba9f0a267b6a4_3.zip'
p779
aS'http://gis.michigan.opendata.arcgis.com/datasets/85ccffdf80e34fbc875ba9f0a267b6a4_3'
p780
aS'https://gisago.mcgi.state.mi.us/arcgis/rest/services/DNR/dnrForestPlanning/MapServer/3'
p781
ag8
ag12
ag8
ag8
aS'State of  Michigan GIS Open Data'
p782
aS'State of  Michigan GIS Open Data'
p783
aS'HemlockHostSpecies2013'
p784
aa(lp785
S'http://gis.michigan.opendata.arcgis.com/datasets/2e302d58277b493596b2a482579e3dfd_4'
p786
aS'168682'
p787
aS'Hemlock Host Species 2014'
p788
aS'Hemlock Host Species 2014 includes the areas derived from the Aerial Survey analysis completed by the US Forest Service and the Michigan Department of Natural Resources.'
p789
aS'dnr###forest planning###forestry'
p790
aS'Michigan'
p791
aS'planningCadastreeconomy'
p792
aS'http://gis.michigan.opendata.arcgis.com/datasets/2e302d58277b493596b2a482579e3dfd_4.zip'
p793
aS'http://gis.michigan.opendata.arcgis.com/datasets/2e302d58277b493596b2a482579e3dfd_4'
p794
aS'https://gisago.mcgi.state.mi.us/arcgis/rest/services/DNR/dnrForestPlanning/MapServer/4'
p795
ag8
ag12
ag8
ag8
aS'State of  Michigan GIS Open Data'
p796
aS'State of  Michigan GIS Open Data'
p797
aS'HemlockHostSpecies2014'
p798
aa(lp799
S'http://gis.michigan.opendata.arcgis.com/datasets/3bb9d7a05ccd4c2fb8eb7fefaaf46d55_0'
p800
aS'168681'
p801
aS'Historical Shipwrecks'
p802
aS'This layer was created from a table of shipwreck locations created by Michigan DNR Historical Center.'
p803
aS'shipwreck###history###dnr'
p804
aS'Michigan'
p805
ag8
aS'http://gis.michigan.opendata.arcgis.com/datasets/3bb9d7a05ccd4c2fb8eb7fefaaf46d55_0.zip'
p806
aS'http://gis.michigan.opendata.arcgis.com/datasets/3bb9d7a05ccd4c2fb8eb7fefaaf46d55_0'
p807
aS'http://gisago.mcgi.state.mi.us/arcgis/rest/services/DNR/dnrHistory/MapServer/0'
p808
ag8
ag12
ag8
ag8
aS'State of  Michigan GIS Open Data'
p809
aS'State of  Michigan GIS Open Data'
p810
aS'HistoricalShipwrecks'
p811
aa(lp812
S'http://gis.michigan.opendata.arcgis.com/datasets/a020fc444ff04d6abf7b03b268cadb71_9'
p813
aS'168686'
p814
aS'Glacial Landsystems'
p815
aS'Michigan Glacial Landsystems More Metadata'
p816
aS'hydro###groundwater###michigan'
p817
aS'Michigan'
p818
aS'geoscientificInformationinlandWaters'
p819
aS'http://gis.michigan.opendata.arcgis.com/datasets/a020fc444ff04d6abf7b03b268cadb71_9.zip'
p820
aS'http://gis.michigan.opendata.arcgis.com/datasets/a020fc444ff04d6abf7b03b268cadb71_9'
p821
aS'https://gisago.mcgi.state.mi.us/arcgis/rest/services/OpenData/hydro/MapServer/9'
p822
ag8
ag12
ag8
ag8
aS'State of  Michigan GIS Open Data'
p823
aS'State of  Michigan GIS Open Data'
p824
aS'GlacialLandsystems'
p825
aa(lp826
S'http://gis.michigan.opendata.arcgis.com/datasets/9c5e71bc214e42939476817ffda4c509_7'
p827
aS'168688'
p828
aS'Federal Land Open to Hunting'
p829
aS'"Federal Lands Open to Hunting includes lands managed by the US Forest Service, National Park Service, and the US Fish and Wildlife Service that are open to public hunting. Please double check with the appropriate federal agency for specific rules and regulations."'
p830
aS'hunting###hunting land###dnr'
p831
aS'Michigan'
p832
aS'economy'
p833
aS'http://gis.michigan.opendata.arcgis.com/datasets/9c5e71bc214e42939476817ffda4c509_7.zip'
p834
aS'http://gis.michigan.opendata.arcgis.com/datasets/9c5e71bc214e42939476817ffda4c509_7'
p835
aS'https://gisago.mcgi.state.mi.us/arcgis/rest/services/DNR/dnrHuntableLands/MapServer/7'
p836
ag8
ag12
ag8
ag8
aS'State of  Michigan GIS Open Data'
p837
aS'State of  Michigan GIS Open Data'
p838
aS'FederalLandOpentoHunting'
p839
aa(lp840
S'http://gis.michigan.opendata.arcgis.com/datasets/baa14b73ba2f4d39b575713db8b42bb9_11'
p841
aS'168687'
p842
aS'Forest Health Points'
p843
aS'Point data derived from the coordinates or section centroid entered into the Forest Health Citrix App.'
p844
aS'dnr###forestry'
p845
aS'Michigan'
p846
aS'economy'
p847
aS'http://gis.michigan.opendata.arcgis.com/datasets/baa14b73ba2f4d39b575713db8b42bb9_11.zip'
p848
aS'http://gis.michigan.opendata.arcgis.com/datasets/baa14b73ba2f4d39b575713db8b42bb9_11'
p849
aS'http://gisago.mcgi.state.mi.us/arcgis/rest/services/DNR/dnrForestry/MapServer/11'
p850
ag8
ag12
ag8
ag8
aS'State of  Michigan GIS Open Data'
p851
aS'State of  Michigan GIS Open Data'
p852
aS'ForestHealthPoints'
p853
aa(lp854
S'http://gis.michigan.opendata.arcgis.com/datasets/e2c9f99a5bf44f16bbe2f86602c07921_7'
p855
aS'168692'
p856
aS'Drinking Water Wells - Southwest Michigan'
p857
aS'"The data in these six files is derived from Wellogic, the Michigan Department of Environmental Quality statewide ground water database. The six files combined contain information on over 575,000 spatially verified water well records. The six files are intended to provide water well information for wells in counties clustered by geographic region: Upper Peninsula, Northern Lower Peninsula, East Central Lower Peninsula, West Central Lower Peninsula, Southwest Lower Peninsula and the South Central _ Southeastern Lower Peninsula. The files are constructed to be easily merged, containing the same number and type of attribute fields. Although the derived data in these files represents the best readily available data, the six files do not represent a complete database of all wells or well records in existence. Until January 1, 2000 not all water well records for new wells in Michigan were entered into Wellogic. For wells drilled before 2000 the rate of inclusion is highly variable from one county to another. Further, there is a quality control check on location that may exclude a limited number of wells from Wellogic from the six files made available on this site. More Metadata"'
p858
aS'hydro###groundwater###michigan###public health###deq'
p859
aS'Michigan'
p860
aS'healthgeoscientificInformationinlandWaters'
p861
aS'http://gis.michigan.opendata.arcgis.com/datasets/e2c9f99a5bf44f16bbe2f86602c07921_7.zip'
p862
aS'http://gis.michigan.opendata.arcgis.com/datasets/e2c9f99a5bf44f16bbe2f86602c07921_7'
p863
aS'https://gisago.mcgi.state.mi.us/arcgis/rest/services/OpenData/public_health/MapServer/7'
p864
ag8
ag12
ag8
ag8
aS'State of  Michigan GIS Open Data'
p865
aS'State of  Michigan GIS Open Data'
p866
aS'DrinkingWaterWellsSouthwestMichigan'
p867
aa(lp868
S'http://gis.michigan.opendata.arcgis.com/datasets/7711ba3d99ee4bf1b967812da2e0e21b_6'
p869
aS'168691'
p870
aS'Drinking Water Wells - West Central Lower Peninsula'
p871
aS'"The data in these six files is derived from Wellogic, the Michigan Department of Environmental Quality statewide ground water database. The six files combined contain information on over 575,000 spatially verified water well records. The six files are intended to provide water well information for wells in counties clustered by geographic region: Upper Peninsula, Northern Lower Peninsula, East Central Lower Peninsula, West Central Lower Peninsula, Southwest Lower Peninsula and the South Central _ Southeastern Lower Peninsula. The files are constructed to be easily merged, containing the same number and type of attribute fields. Although the derived data in these files represents the best readily available data, the six files do not represent a complete database of all wells or well records in existence. Until January 1, 2000 not all water well records for new wells in Michigan were entered into Wellogic. For wells drilled before 2000 the rate of inclusion is highly variable from one county to another. Further, there is a quality control check on location that may exclude a limited number of wells from Wellogic from the six files made available on this site. More Metadata"'
p872
aS'hydro###groundwater###michigan###public health###deq'
p873
aS'Michigan'
p874
aS'healthgeoscientificInformationinlandWaters'
p875
aS'http://gis.michigan.opendata.arcgis.com/datasets/7711ba3d99ee4bf1b967812da2e0e21b_6.zip'
p876
aS'http://gis.michigan.opendata.arcgis.com/datasets/7711ba3d99ee4bf1b967812da2e0e21b_6'
p877
aS'https://gisago.mcgi.state.mi.us/arcgis/rest/services/OpenData/public_health/MapServer/6'
p878
ag8
ag12
ag8
ag8
aS'State of  Michigan GIS Open Data'
p879
aS'State of  Michigan GIS Open Data'
p880
aS'DrinkingWaterWellsWestCentralLowerPeninsula'
p881
aa(lp882
S'http://gis.michigan.opendata.arcgis.com/datasets/e0ef07f51f9444b7a75c47e184f5e5b1_8'
p883
aS'168690'
p884
aS'Estimated Groundwater Recharge'
p885
aS'This data set provides an estimate of annual groundwater recharge for each public land survey section in Michigan. More Metadata'
p886
aS'hydro###groundwater###michigan'
p887
aS'Michigan'
p888
aS'geoscientificInformationinlandWaters'
p889
aS'http://gis.michigan.opendata.arcgis.com/datasets/e0ef07f51f9444b7a75c47e184f5e5b1_8.zip'
p890
aS'http://gis.michigan.opendata.arcgis.com/datasets/e0ef07f51f9444b7a75c47e184f5e5b1_8'
p891
aS'https://gisago.mcgi.state.mi.us/arcgis/rest/services/OpenData/hydro/MapServer/8'
p892
ag8
ag12
ag8
ag8
aS'State of  Michigan GIS Open Data'
p893
aS'State of  Michigan GIS Open Data'
p894
aS'EstimatedGroundwaterRecharge'
p895
aa(lp896
S'http://gis.michigan.opendata.arcgis.com/datasets/5302277c5b544981a645bfd9929d9709_4'
p897
aS'168689'
p898
aS'Drinking Water Wells - Upper Peninsula'
p899
aS'"The data in these six files is derived from Wellogic, the Michigan Department of Environmental Quality statewide ground water database. The six files combined contain information on over 575,000 spatially verified water well records. The six files are intended to provide water well information for wells in counties clustered by geographic region: Upper Peninsula, Northern Lower Peninsula, East Central Lower Peninsula, West Central Lower Peninsula, Southwest Lower Peninsula and the South Central _ Southeastern Lower Peninsula. The files are constructed to be easily merged, containing the same number and type of attribute fields. Although the derived data in these files represents the best readily available data, the six files do not represent a complete database of all wells or well records in existence. Until January 1, 2000 not all water well records for new wells in Michigan were entered into Wellogic. For wells drilled before 2000 the rate of inclusion is highly variable from one county to another. Further, there is a quality control check on location that may exclude a limited number of wells from Wellogic from the six files made available on this site. More Metadata"'
p900
aS'hydro###groundwater###michigan###public health###deq'
p901
aS'Michigan'
p902
aS'healthgeoscientificInformationinlandWaters'
p903
aS'http://gis.michigan.opendata.arcgis.com/datasets/5302277c5b544981a645bfd9929d9709_4.zip'
p904
aS'http://gis.michigan.opendata.arcgis.com/datasets/5302277c5b544981a645bfd9929d9709_4'
p905
aS'https://gisago.mcgi.state.mi.us/arcgis/rest/services/OpenData/public_health/MapServer/4'
p906
ag8
ag12
ag8
ag8
aS'State of  Michigan GIS Open Data'
p907
aS'State of  Michigan GIS Open Data'
p908
aS'DrinkingWaterWellsUpperPeninsula'
p909
aa(lp910
S'http://gis.michigan.opendata.arcgis.com/datasets/5c1f42d9514c4ba38c29b50a5dfbd9a4_9'
p911
aS'168693'
p912
aS'Drinking Water Wells - South Central &amp; Southeastern Michigan'
p913
aS'"The data in these six files is derived from Wellogic, the Michigan Department of Environmental Quality statewide ground water database. The six files combined contain information on over 575,000 spatially verified water well records. The six files are intended to provide water well information for wells in counties clustered by geographic region: Upper Peninsula, Northern Lower Peninsula, East Central Lower Peninsula, West Central Lower Peninsula, Southwest Lower Peninsula and the South Central _ Southeastern Lower Peninsula. The files are constructed to be easily merged, containing the same number and type of attribute fields. Although the derived data in these files represents the best readily available data, the six files do not represent a complete database of all wells or well records in existence. Until January 1, 2000 not all water well records for new wells in Michigan were entered into Wellogic. For wells drilled before 2000 the rate of inclusion is highly variable from one county to another. Further, there is a quality control check on location that may exclude a limited number of wells from Wellogic from the six files made available on this site. More Metadata"'
p914
aS'hydro###groundwater###michigan###public health###deq'
p915
aS'Michigan'
p916
aS'healthgeoscientificInformationinlandWaters'
p917
aS'http://gis.michigan.opendata.arcgis.com/datasets/5c1f42d9514c4ba38c29b50a5dfbd9a4_9.zip'
p918
aS'http://gis.michigan.opendata.arcgis.com/datasets/5c1f42d9514c4ba38c29b50a5dfbd9a4_9'
p919
aS'https://gisago.mcgi.state.mi.us/arcgis/rest/services/OpenData/public_health/MapServer/9'
p920
ag8
ag12
ag8
ag8
aS'State of  Michigan GIS Open Data'
p921
aS'State of  Michigan GIS Open Data'
p922
aS'DrinkingWaterWellsSouthCentralSoutheasternMichigan'
p923
aa(lp924
S'http://gis.michigan.opendata.arcgis.com/datasets/9d7ae7766e0e4a90a7660aa37675c0e8_5'
p925
aS'168694'
p926
aS'Drinking Water Wells - Northern Lower Peninsula'
p927
aS'"The data in these six files is derived from Wellogic, the Michigan Department of Environmental Quality statewide ground water database. The six files combined contain information on over 575,000 spatially verified water well records. The six files are intended to provide water well information for wells in counties clustered by geographic region: Upper Peninsula, Northern Lower Peninsula, East Central Lower Peninsula, West Central Lower Peninsula, Southwest Lower Peninsula and the South Central _ Southeastern Lower Peninsula. The files are constructed to be easily merged, containing the same number and type of attribute fields. Although the derived data in these files represents the best readily available data, the six files do not represent a complete database of all wells or well records in existence. Until January 1, 2000 not all water well records for new wells in Michigan were entered into Wellogic. For wells drilled before 2000 the rate of inclusion is highly variable from one county to another. Further, there is a quality control check on location that may exclude a limited number of wells from Wellogic from the six files made available on this site. More Metadata"'
p928
aS'hydro###groundwater###michigan###public health###deq'
p929
aS'Michigan'
p930
aS'healthgeoscientificInformationinlandWaters'
p931
aS'http://gis.michigan.opendata.arcgis.com/datasets/9d7ae7766e0e4a90a7660aa37675c0e8_5.zip'
p932
aS'http://gis.michigan.opendata.arcgis.com/datasets/9d7ae7766e0e4a90a7660aa37675c0e8_5'
p933
aS'https://gisago.mcgi.state.mi.us/arcgis/rest/services/OpenData/public_health/MapServer/5'
p934
ag8
ag12
ag8
ag8
aS'State of  Michigan GIS Open Data'
p935
aS'State of  Michigan GIS Open Data'
p936
aS'DrinkingWaterWellsNorthernLowerPeninsula'
p937
aa(lp938
S'http://gis.michigan.opendata.arcgis.com/datasets/f3d340db7938420d89d6460c00c41e9e_8'
p939
aS'168695'
p940
aS'Drinking Water Wells - East Central Lower Peninsula'
p941
aS'"The data in these six files is derived from Wellogic, the Michigan Department of Environmental Quality statewide ground water database. The six files combined contain information on over 575,000 spatially verified water well records. The six files are intended to provide water well information for wells in counties clustered by geographic region: Upper Peninsula, Northern Lower Peninsula, East Central Lower Peninsula, West Central Lower Peninsula, Southwest Lower Peninsula and the South Central _ Southeastern Lower Peninsula. The files are constructed to be easily merged, containing the same number and type of attribute fields. Although the derived data in these files represents the best readily available data, the six files do not represent a complete database of all wells or well records in existence. Until January 1, 2000 not all water well records for new wells in Michigan were entered into Wellogic. For wells drilled before 2000 the rate of inclusion is highly variable from one county to another. Further, there is a quality control check on location that may exclude a limited number of wells from Wellogic from the six files made available on this site. More Metadata"'
p942
aS'hydro###groundwater###michigan###public health###deq'
p943
aS'Michigan'
p944
aS'healthgeoscientificInformationinlandWaters'
p945
aS'http://gis.michigan.opendata.arcgis.com/datasets/f3d340db7938420d89d6460c00c41e9e_8.zip'
p946
aS'http://gis.michigan.opendata.arcgis.com/datasets/f3d340db7938420d89d6460c00c41e9e_8'
p947
aS'https://gisago.mcgi.state.mi.us/arcgis/rest/services/OpenData/public_health/MapServer/8'
p948
ag8
ag12
ag8
ag8
aS'State of  Michigan GIS Open Data'
p949
aS'State of  Michigan GIS Open Data'
p950
aS'DrinkingWaterWellsEastCentralLowerPeninsula'
p951
aa(lp952
S'http://gis.michigan.opendata.arcgis.com/datasets/a7131cc43bc84c369a65bef4030c68c9_0'
p953
aS'168696'
p954
aS'Downtown Parking Lots, Detroit, 2012'
p955
aS'There is no description available.'
p956
aS'Parking Lots###Transportation###Parking###Downtown Detroit###Parking Decks###Amenities###Property Land Use and Housing###Structures###Infrastructure'
p957
aS'Michigan'
p958
aS'transportationstructureintelligenceMilitary'
p959
aS'http://gis.michigan.opendata.arcgis.com/datasets/a7131cc43bc84c369a65bef4030c68c9_0.zip'
p960
aS'http://gis.michigan.opendata.arcgis.com/datasets/a7131cc43bc84c369a65bef4030c68c9_0'
p961
aS'http://gis.datadrivendetroit.org/arcgis/rest/services/OpenData/DowntownParkingLots/MapServer/0'
p962
ag8
ag12
ag8
ag8
aS'State of  Michigan GIS Open Data'
p963
aS'State of  Michigan GIS Open Data'
p964
aS'DowntownParkingLotsDetroit2012'
p965
aa(lp966
S'http://gis.michigan.opendata.arcgis.com/datasets/4b886654a8d846a782658bd4712e7952_0'
p967
aS'168698'
p968
aS'DETROIT BIKE LANES'
p969
aS'"This layer is a reproduction of the non-motorized transportation projects that have been completed, are in progress or in planning as issued by the City of Detroit Department of Public Works - Traffic Engineering Division as of 2014."'
p970
aS'Transportation###Wayne County###Detroit###Green Infrastructure###Bicycle###Amenities###Bike Lane'
p971
aS'Michigan'
p972
aS'transportationstructureintelligenceMilitary'
p973
aS'http://gis.michigan.opendata.arcgis.com/datasets/4b886654a8d846a782658bd4712e7952_0.zip'
p974
aS'http://gis.michigan.opendata.arcgis.com/datasets/4b886654a8d846a782658bd4712e7952_0'
p975
aS'https://services2.arcgis.com/HsXtOCMp1Nis1Ogr/arcgis/rest/services/DETROIT_BIKE_LANES/FeatureServer/0'
p976
ag8
ag12
ag8
ag8
aS'State of  Michigan GIS Open Data'
p977
aS'State of  Michigan GIS Open Data'
p978
aS'DETROITBIKELANES'
p979
aa(lp980
S'http://gis.michigan.opendata.arcgis.com/datasets/5181700cd2074b88b04514cbbed0cc32_0'
p981
aS'168697'
p982
aS'Detroit Historic Local Designations HDC PDD'
p983
aS"Locally designated historic places maintained by The Detroit Historic District Commission which is a city agency that was formed by Detroit Ordinance 161-H in 1976. Its purpose is to ensure the preservation of historically and culturally significant areas of the City which are designated by the City Council as Historic Districts. The Commission is made up of seven Detroit residents who are appointed by Mayor. These dedicated volunteers are generally residents of historic districts and represent such professions as architects and realtors. The Commission staff is located within the City of Detroit's Planning & Development Department."
p984
aS'Detroit###Amenities###Planning Development Dept###Historic###Property Land Use and Housing###Places###Detroit Historic District Commission'
p985
aS'Michigan'
p986
aS'planningCadastre'
p987
aS'http://gis.michigan.opendata.arcgis.com/datasets/5181700cd2074b88b04514cbbed0cc32_0.zip'
p988
aS'http://gis.michigan.opendata.arcgis.com/datasets/5181700cd2074b88b04514cbbed0cc32_0'
p989
aS'https://services2.arcgis.com/HsXtOCMp1Nis1Ogr/arcgis/rest/services/Detroit_Historic_Local_Designations_HDC_PDD/FeatureServer/0'
p990
ag8
ag12
ag8
ag8
aS'State of  Michigan GIS Open Data'
p991
aS'State of  Michigan GIS Open Data'
p992
aS'DetroitHistoricLocalDesignationsHDCPDD'
p993
aa(lp994
S'http://gis.michigan.opendata.arcgis.com/datasets/53b6643d18994d8db12fb13567cd3c21_10'
p995
aS'168701'
p996
aS'Conservation Easements'
p997
aS'Michigan Conservation Easements More Metadata'
p998
aS'hydro###michigan###deq'
p999
aS'Michigan'
p1000
aS'geoscientificInformationinlandWaters'
p1001
aS'http://gis.michigan.opendata.arcgis.com/datasets/53b6643d18994d8db12fb13567cd3c21_10.zip'
p1002
aS'http://gis.michigan.opendata.arcgis.com/datasets/53b6643d18994d8db12fb13567cd3c21_10'
p1003
aS'https://gisago.mcgi.state.mi.us/arcgis/rest/services/OpenData/hydro/MapServer/10'
p1004
ag8
ag12
ag8
ag8
aS'State of  Michigan GIS Open Data'
p1005
aS'State of  Michigan GIS Open Data'
p1006
aS'ConservationEasements'
p1007
aa(lp1008
S'http://gis.michigan.opendata.arcgis.com/datasets/67a8ff23b5f54f15b7133b8c30981441_0'
p1009
aS'168700'
p1010
aS'Counties'
p1011
aS'Counties from the Michigan Geographic Framework (MGF) base map. More Metadata'
p1012
aS'boundaries###michigan###michigan Geographic framework###county###mgf'
p1013
aS'Michigan'
p1014
aS'boundaries'
p1015
aS'http://gis.michigan.opendata.arcgis.com/datasets/67a8ff23b5f54f15b7133b8c30981441_0.zip'
p1016
aS'http://gis.michigan.opendata.arcgis.com/datasets/67a8ff23b5f54f15b7133b8c30981441_0'
p1017
aS'https://gisago.mcgi.state.mi.us/arcgis/rest/services/OpenData/michigan_geographic_framework/MapServer/0'
p1018
ag8
ag12
ag8
ag8
aS'State of  Michigan GIS Open Data'
p1019
aS'State of  Michigan GIS Open Data'
p1020
aS'Counties'
p1021
aa(lp1022
S'http://gis.michigan.opendata.arcgis.com/datasets/ae5112507e3a40f1ae570a4966821002_6'
p1023
aS'168699'
p1024
aS'Critical Dunes'
p1025
aS'"Digital form of maps used in \\""Designated and Critical Sand Dune Areas\\"" pamphlet. Published by Geological Survey Division in 1996. These are the same areas represented in the \\""Atlas of Critical Dunes\\"", which was publised in February 1989 and is referenced in Part 353, Sand Dune Protection and Management, of the Natural Resources and Environmental Protection Act, 1994 PA 451, as amended (NREPA). More Metadata"'
p1026
aS'soils###michigan###geology'
p1027
aS'Michigan'
p1028
aS'geoscientificInformationgeoscientificInformation'
p1029
aS'http://gis.michigan.opendata.arcgis.com/datasets/ae5112507e3a40f1ae570a4966821002_6.zip'
p1030
aS'http://gis.michigan.opendata.arcgis.com/datasets/ae5112507e3a40f1ae570a4966821002_6'
p1031
aS'https://gisago.mcgi.state.mi.us/arcgis/rest/services/OpenData/geology/MapServer/6'
p1032
ag8
ag12
ag8
ag8
aS'State of  Michigan GIS Open Data'
p1033
aS'State of  Michigan GIS Open Data'
p1034
aS'CriticalDunes'
p1035
aa(lp1036
S'http://gis.michigan.opendata.arcgis.com/datasets/387b0670f61149b4bab8f271a07c9fd4_3'
p1037
aS'168703'
p1038
aS'Commercial Forest Hunting Lands (Private Forest Land)'
p1039
aS'"Commercial Forests Open to Hunting includes lands managed by private citizens in agreement with the Michigan Department of Natural Resources that are open to public hunting. Please double check with the appropriate agency for specific rules, regulations, and restrictions."'
p1040
aS'hunting###hunting land###dnr'
p1041
aS'Michigan'
p1042
aS'economy'
p1043
aS'http://gis.michigan.opendata.arcgis.com/datasets/387b0670f61149b4bab8f271a07c9fd4_3.zip'
p1044
aS'http://gis.michigan.opendata.arcgis.com/datasets/387b0670f61149b4bab8f271a07c9fd4_3'
p1045
aS'https://gisago.mcgi.state.mi.us/arcgis/rest/services/DNR/dnrHuntableLands/MapServer/3'
p1046
ag8
ag12
ag8
ag8
aS'State of  Michigan GIS Open Data'
p1047
aS'State of  Michigan GIS Open Data'
p1048
aS'CommercialForestHuntingLandsPrivateForestLand'
p1049
aa(lp1050
S'http://gis.michigan.opendata.arcgis.com/datasets/c282f3a2f1b84a54ae6dc44bc7568247_15'
p1051
aS'168702'
p1052
aS'Congressional Districts'
p1053
aS'Congressional Districts from the Michigan Geographic Framework (MGF) base map. 2011 Apportionment Plan as enacted by PA 128 of 2011. More Metadata'
p1054
aS'boundaries###michigan geographic framework###michigan###mgf###political'
p1055
aS'Michigan'
p1056
aS'boundaries'
p1057
aS'http://gis.michigan.opendata.arcgis.com/datasets/c282f3a2f1b84a54ae6dc44bc7568247_15.zip'
p1058
aS'http://gis.michigan.opendata.arcgis.com/datasets/c282f3a2f1b84a54ae6dc44bc7568247_15'
p1059
aS'https://gisago.mcgi.state.mi.us/arcgis/rest/services/OpenData/michigan_geographic_framework/MapServer/15'
p1060
ag8
ag12
ag8
ag8
aS'State of  Michigan GIS Open Data'
p1061
aS'State of  Michigan GIS Open Data'
p1062
aS'CongressionalDistricts'
p1063
aa(lp1064
S'http://gis.michigan.opendata.arcgis.com/datasets/2e7d9b6b3f2c435baba8492eca5b5a01_4'
p1065
aS'168705'
p1066
aS'Census Designated Places'
p1067
aS'"Census Designated Places (CDPs) from the Michigan Geographic Framework (MGF) base map. These are the statistical counterparts of incorporated places, and are delineated to provide data for settled concentrations of population that are identifiable by name but are not legally incorporated under the laws of the state in which they are located. The boundaries usually are defined in cooperation with local or tribal officials and generally updated prior to each decennial census. These boundaries, which usually coincide with visible features or the boundary of an adjacent incorporated place or another legal entity boundary, have no legal status, nor do these places have officials elected to serve traditional municipal functions. CDP boundaries may change from one decennial census to the next with changes in the settlement pattern; a CDP with the same name as in an earlier census does not necessarily have the same boundary. CDPs must be contained within a single state and may not extend into an incorporated place. There are no population size requirements for CDPs. More Metadata"'
p1068
aS'cdp###census###michigan geographic framework###michigan###mgf'
p1069
aS'Michigan'
p1070
aS'society'
p1071
aS'http://gis.michigan.opendata.arcgis.com/datasets/2e7d9b6b3f2c435baba8492eca5b5a01_4.zip'
p1072
aS'http://gis.michigan.opendata.arcgis.com/datasets/2e7d9b6b3f2c435baba8492eca5b5a01_4'
p1073
aS'https://gisago.mcgi.state.mi.us/arcgis/rest/services/OpenData/michigan_geographic_framework/MapServer/4'
p1074
ag8
ag12
ag8
ag8
aS'State of  Michigan GIS Open Data'
p1075
aS'State of  Michigan GIS Open Data'
p1076
aS'CensusDesignatedPlaces'
p1077
aa(lp1078
S'http://gis.michigan.opendata.arcgis.com/datasets/ca5677620f714370b25e9e004547befc_1'
p1079
aS'168704'
p1080
aS'Cities'
p1081
aS'Cities from the Michigan Geographic Framework (MGF) base map. More Metadata'
p1082
aS'michigan###michigan geographic framework###city###boundaries###mgf###mcd'
p1083
aS'Michigan'
p1084
aS'boundaries'
p1085
aS'http://gis.michigan.opendata.arcgis.com/datasets/ca5677620f714370b25e9e004547befc_1.zip'
p1086
aS'http://gis.michigan.opendata.arcgis.com/datasets/ca5677620f714370b25e9e004547befc_1'
p1087
aS'https://gisago.mcgi.state.mi.us/arcgis/rest/services/OpenData/michigan_geographic_framework/MapServer/1'
p1088
ag8
ag12
ag8
ag8
aS'State of  Michigan GIS Open Data'
p1089
aS'State of  Michigan GIS Open Data'
p1090
aS'Cities'
p1091
aa(lp1092
S'http://gis.michigan.opendata.arcgis.com/datasets/34044b85bdb64437900fa6b85f4c4045_0'
p1093
aS'168707'
p1094
aS'Bedrock Geology'
p1095
aS'Michigan bedrock geology More Metadata'
p1096
aS'michigan###geology'
p1097
aS'Michigan'
p1098
aS'geoscientificInformationgeoscientificInformation'
p1099
aS'http://gis.michigan.opendata.arcgis.com/datasets/34044b85bdb64437900fa6b85f4c4045_0.zip'
p1100
aS'http://gis.michigan.opendata.arcgis.com/datasets/34044b85bdb64437900fa6b85f4c4045_0'
p1101
aS'https://gisago.mcgi.state.mi.us/arcgis/rest/services/OpenData/geology/MapServer/0'
p1102
ag8
ag12
ag8
ag8
aS'State of  Michigan GIS Open Data'
p1103
aS'State of  Michigan GIS Open Data'
p1104
aS'BedrockGeology'
p1105
aa(lp1106
S'http://gis.michigan.opendata.arcgis.com/datasets/a861dc3e767743d8be4c49d555848537_3'
p1107
aS'168706'
p1108
aS'Campgrounds on Michigan State Forest Land'
p1109
aS'Campgrounds on State Forest Land are public campgrounds located in the Michigan State Forest System.'
p1110
aS'campground###recreation###dnr'
p1111
aS'Michigan'
p1112
aS'society'
p1113
aS'http://gis.michigan.opendata.arcgis.com/datasets/a861dc3e767743d8be4c49d555848537_3.zip'
p1114
aS'http://gis.michigan.opendata.arcgis.com/datasets/a861dc3e767743d8be4c49d555848537_3'
p1115
aS'https://gisago.mcgi.state.mi.us/arcgis/rest/services/DNR/dnrParksAndRecreation/MapServer/3'
p1116
ag8
ag12
ag8
ag8
aS'State of  Michigan GIS Open Data'
p1117
aS'State of  Michigan GIS Open Data'
p1118
aS'CampgroundsonMichiganStateForestLand'
p1119
aa(lp1120
S'http://gis.michigan.opendata.arcgis.com/datasets/08c70007e32a40cca80c5c559bacbbcf_13'
p1121
aS'168709'
p1122
aS'Ash Host Species 2015'
p1123
aS'Ash Host Species 2015 includes the areas derived from the Aerial Survey analysis completed by the US Forest Service and the Michigan Department of Natural Resources.'
p1124
aS'dnr###forestry'
p1125
aS'Michigan'
p1126
aS'economy'
p1127
aS'http://gis.michigan.opendata.arcgis.com/datasets/08c70007e32a40cca80c5c559bacbbcf_13.zip'
p1128
aS'http://gis.michigan.opendata.arcgis.com/datasets/08c70007e32a40cca80c5c559bacbbcf_13'
p1129
aS'https://gisago.mcgi.state.mi.us/arcgis/rest/services/DNR/dnrForestPlanning/MapServer/13'
p1130
ag8
ag12
ag8
ag8
aS'State of  Michigan GIS Open Data'
p1131
aS'State of  Michigan GIS Open Data'
p1132
aS'AshHostSpecies2015'
p1133
aa(lp1134
S'http://gis.michigan.opendata.arcgis.com/datasets/e8e263ecfc634c56ac89adefd4a21454_3'
p1135
aS'168708'
p1136
aS'Base Flow of Michigan Streams'
p1137
aS'"This data set provides estimates of the ground-water contribution to stream flow, frequently referred to as base flow, in cubic feet per second. The baseflow of a stream or river is the amount of groundwater discharged from an aquifer to the watercourse. This discharge occurs year-round, and fluctuates seasonally depending on the level of the water in the aquifer. Baseflow is supplemented by direct runoff during and immediately after precipitation or melt events, resulting in peaks on a hydrograph showing stream flow through time. The process of dividing these peaks into base flow and runoff is called hydrograph separation. Hydrograph separations were completed for all USGS stream- flow gaging stations in Michigan that had more than 10 years of daily records. Sites that were clearly affected by upstream impoundments (lakes, dams) were excluded. No attempt was made to detect or correct for trends in the data. This may lead to some errors in the comparison of streams with data from different time periods if there is an underlying temporal trend in the data, but inclusion of all records in the analysis was necessary to increase the data pool and provide better spatial coverage. Watersheds were delineated for each of the 208 stream-flow gaging stations, and various characteristics of each watershed, such as topographic relief, surficial geology, land cover, growing degree days, annual and winter-season precipitation, and others were tabulated. Regression modeling, described in the Technical Report, was used to estimate the baseflow for each steam segment of the 1:100,000-scale National Hydrography Dataset. More Metadata"'
p1138
aS'hydro###groundwater###michigan'
p1139
aS'Michigan'
p1140
aS'geoscientificInformationinlandWaters'
p1141
aS'http://gis.michigan.opendata.arcgis.com/datasets/e8e263ecfc634c56ac89adefd4a21454_3.zip'
p1142
aS'http://gis.michigan.opendata.arcgis.com/datasets/e8e263ecfc634c56ac89adefd4a21454_3'
p1143
aS'https://gisago.mcgi.state.mi.us/arcgis/rest/services/OpenData/hydro/MapServer/3'
p1144
ag8
ag12
ag8
ag8
aS'State of  Michigan GIS Open Data'
p1145
aS'State of  Michigan GIS Open Data'
p1146
aS'BaseFlowofMichiganStreams'
p1147
aa(lp1148
S'http://gis.michigan.opendata.arcgis.com/datasets/132d9fff80224f9cbe8f05d8290e377b_12'
p1149
aS'168710'
p1150
aS'Ash Host Species 2014'
p1151
aS'Ash Host Species 2014 includes the areas derived from the Aerial Survey analysis completed by the US Forest Service and the Michigan Department of Natural Resources.'
p1152
aS'dnr###forest planning###forestry'
p1153
aS'Michigan'
p1154
aS'planningCadastreeconomy'
p1155
aS'http://gis.michigan.opendata.arcgis.com/datasets/132d9fff80224f9cbe8f05d8290e377b_12.zip'
p1156
aS'http://gis.michigan.opendata.arcgis.com/datasets/132d9fff80224f9cbe8f05d8290e377b_12'
p1157
aS'https://gisago.mcgi.state.mi.us/arcgis/rest/services/DNR/dnrForestPlanning/MapServer/12'
p1158
ag8
ag12
ag8
ag8
aS'State of  Michigan GIS Open Data'
p1159
aS'State of  Michigan GIS Open Data'
p1160
aS'AshHostSpecies2014'
p1161
aa(lp1162
S'http://gis.michigan.opendata.arcgis.com/datasets/faadaddab44447f4b3d1df9c17c0611c_10'
p1163
aS'168713'
p1164
aS'Ash Host Species 2012'
p1165
aS'Ash Host Species 2012 includes the areas derived from the Aerial Survey analysis completed by the US Forest Service and the Michigan Department of Natural Resources.'
p1166
aS'dnr###forest planning###forestry'
p1167
aS'Michigan'
p1168
aS'planningCadastreeconomy'
p1169
aS'http://gis.michigan.opendata.arcgis.com/datasets/faadaddab44447f4b3d1df9c17c0611c_10.zip'
p1170
aS'http://gis.michigan.opendata.arcgis.com/datasets/faadaddab44447f4b3d1df9c17c0611c_10'
p1171
aS'https://gisago.mcgi.state.mi.us/arcgis/rest/services/DNR/dnrForestPlanning/MapServer/10'
p1172
ag8
ag12
ag8
ag8
aS'State of  Michigan GIS Open Data'
p1173
aS'State of  Michigan GIS Open Data'
p1174
aS'AshHostSpecies2012'
p1175
aa(lp1176
S'http://gis.michigan.opendata.arcgis.com/datasets/0a8afb65c5504224bee0bc2abac6090e_9'
p1177
aS'168712'
p1178
aS'Ash Host Species 2011'
p1179
aS'Ash Host Species 2011 includes the areas derived from the Aerial Survey analysis completed by the US Forest Service and the Michigan Department of Natural Resources.'
p1180
aS'dnr###forest planning###forestry'
p1181
aS'Michigan'
p1182
aS'planningCadastreeconomy'
p1183
aS'http://gis.michigan.opendata.arcgis.com/datasets/0a8afb65c5504224bee0bc2abac6090e_9.zip'
p1184
aS'http://gis.michigan.opendata.arcgis.com/datasets/0a8afb65c5504224bee0bc2abac6090e_9'
p1185
aS'https://gisago.mcgi.state.mi.us/arcgis/rest/services/DNR/dnrForestPlanning/MapServer/9'
p1186
ag8
ag12
ag8
ag8
aS'State of  Michigan GIS Open Data'
p1187
aS'State of  Michigan GIS Open Data'
p1188
aS'AshHostSpecies2011'
p1189
aa(lp1190
S'http://gis.michigan.opendata.arcgis.com/datasets/5bb619704a384e44907284e9ed540114_11'
p1191
aS'168711'
p1192
aS'Ash Host Species 2013'
p1193
aS'Ash Host Species 2013 includes the areas derived from the Aerial Survey analysis completed by the US Forest Service and the Michigan Department of Natural Resources.'
p1194
aS'dnr###forest planning###forestry'
p1195
aS'Michigan'
p1196
aS'planningCadastreeconomy'
p1197
aS'http://gis.michigan.opendata.arcgis.com/datasets/5bb619704a384e44907284e9ed540114_11.zip'
p1198
aS'http://gis.michigan.opendata.arcgis.com/datasets/5bb619704a384e44907284e9ed540114_11'
p1199
aS'https://gisago.mcgi.state.mi.us/arcgis/rest/services/DNR/dnrForestPlanning/MapServer/11'
p1200
ag8
ag12
ag8
ag8
aS'State of  Michigan GIS Open Data'
p1201
aS'State of  Michigan GIS Open Data'
p1202
aS'AshHostSpecies2013'
p1203
aa(lp1204
S'http://gis.michigan.opendata.arcgis.com/datasets/0ff1565ef9c84f1aa2d18b40eb45b7b0_8'
p1205
aS'168716'
p1206
aS'Ash Host Species 2010'
p1207
aS'Ash Host Species 2010 includes the areas derived from the Aerial Survey analysis completed by the US Forest Service and the Michigan Department of Natural Resources.'
p1208
aS'dnr###forest planning###forestry'
p1209
aS'Michigan'
p1210
aS'planningCadastreeconomy'
p1211
aS'http://gis.michigan.opendata.arcgis.com/datasets/0ff1565ef9c84f1aa2d18b40eb45b7b0_8.zip'
p1212
aS'http://gis.michigan.opendata.arcgis.com/datasets/0ff1565ef9c84f1aa2d18b40eb45b7b0_8'
p1213
aS'https://gisago.mcgi.state.mi.us/arcgis/rest/services/DNR/dnrForestPlanning/MapServer/8'
p1214
ag8
ag12
ag8
ag8
aS'State of  Michigan GIS Open Data'
p1215
aS'State of  Michigan GIS Open Data'
p1216
aS'AshHostSpecies2010'
p1217
aa(lp1218
S'http://gis.michigan.opendata.arcgis.com/datasets/3bf8994feaba4da8ad3c0f18bda45bda_7'
p1219
aS'168715'
p1220
aS'Ash Host Species 2009'
p1221
aS'Ash Host Species 2009 includes the areas derived from the Aerial Survey analysis completed by the US Forest Service and the Michigan Department of Natural Resources.'
p1222
aS'dnr###forest planning###forestry'
p1223
aS'Michigan'
p1224
aS'planningCadastreeconomy'
p1225
aS'http://gis.michigan.opendata.arcgis.com/datasets/3bf8994feaba4da8ad3c0f18bda45bda_7.zip'
p1226
aS'http://gis.michigan.opendata.arcgis.com/datasets/3bf8994feaba4da8ad3c0f18bda45bda_7'
p1227
aS'https://gisago.mcgi.state.mi.us/arcgis/rest/services/DNR/dnrForestPlanning/MapServer/7'
p1228
ag8
ag12
ag8
ag8
aS'State of  Michigan GIS Open Data'
p1229
aS'State of  Michigan GIS Open Data'
p1230
aS'AshHostSpecies2009'
p1231
aa(lp1232
S'http://gis.michigan.opendata.arcgis.com/datasets/1bd60670b4ca40158842f7cbed98a593_6'
p1233
aS'168714'
p1234
aS'Ash Host Species 2007'
p1235
aS'Ash Host Species 2007 includes the areas derived from the Aerial Survey analysis completed by the US Forest Service and the Michigan Department of Natural Resources.'
p1236
aS'dnr###forest planning###forestry'
p1237
aS'Michigan'
p1238
aS'planningCadastreeconomy'
p1239
aS'http://gis.michigan.opendata.arcgis.com/datasets/1bd60670b4ca40158842f7cbed98a593_6.zip'
p1240
aS'http://gis.michigan.opendata.arcgis.com/datasets/1bd60670b4ca40158842f7cbed98a593_6'
p1241
aS'https://gisago.mcgi.state.mi.us/arcgis/rest/services/DNR/dnrForestPlanning/MapServer/6'
p1242
ag8
ag12
ag8
ag8
aS'State of  Michigan GIS Open Data'
p1243
aS'State of  Michigan GIS Open Data'
p1244
aS'AshHostSpecies2007'
p1245
aa(lp1246
S'http://gis.michigan.opendata.arcgis.com/datasets/dedc96080ba0436387e4881144071cb1_7'
p1247
aS'168717'
p1248
aS'Aquifer Characteristics Of Glacial Drift'
p1249
aS'"This data set was derived from the 1981 publication of the Hydrological Atlas of Michigan plate 26. Three plates of the Aquifer Characteristics of Glacial Drift map were scanned, geo-rectified and used as a backdrop in the digitizing of this polygon vector file. More Metadata"'
p1250
aS'hydro###groundwater###michigan'
p1251
aS'Michigan'
p1252
aS'geoscientificInformationinlandWaters'
p1253
aS'http://gis.michigan.opendata.arcgis.com/datasets/dedc96080ba0436387e4881144071cb1_7.zip'
p1254
aS'http://gis.michigan.opendata.arcgis.com/datasets/dedc96080ba0436387e4881144071cb1_7'
p1255
aS'https://gisago.mcgi.state.mi.us/arcgis/rest/services/OpenData/hydro/MapServer/7'
p1256
ag8
ag12
ag8
ag8
aS'State of  Michigan GIS Open Data'
p1257
aS'State of  Michigan GIS Open Data'
p1258
aS'AquiferCharacteristicsOfGlacialDrift'
p1259
aa(lp1260
S'http://gis.michigan.opendata.arcgis.com/datasets/afe4d0d2910e47c09e815d2ff3131af3_41'
p1261
aS'168718'
p1262
aS'Aerial Survey 2015 Severity'
p1263
aS'There is no description available.'
p1264
aS'dnr###forestry'
p1265
aS'Michigan'
p1266
aS'economy'
p1267
aS'http://gis.michigan.opendata.arcgis.com/datasets/afe4d0d2910e47c09e815d2ff3131af3_41.zip'
p1268
aS'http://gis.michigan.opendata.arcgis.com/datasets/afe4d0d2910e47c09e815d2ff3131af3_41'
p1269
aS'https://gisago.mcgi.state.mi.us/arcgis/rest/services/DNR/dnrForestry/MapServer/41'
p1270
ag8
ag12
ag8
ag8
aS'State of  Michigan GIS Open Data'
p1271
aS'State of  Michigan GIS Open Data'
p1272
aS'AerialSurvey2015Severity'
p1273
aa(lp1274
S'http://gis.michigan.opendata.arcgis.com/datasets/f45764fc09964c83afdadb0e378e7d59_44'
p1275
aS'168720'
p1276
aS'Aerial Survey 2015 Host Species'
p1277
aS'There is no description available.'
p1278
aS'dnr###forestry'
p1279
aS'Michigan'
p1280
aS'economy'
p1281
aS'http://gis.michigan.opendata.arcgis.com/datasets/f45764fc09964c83afdadb0e378e7d59_44.zip'
p1282
aS'http://gis.michigan.opendata.arcgis.com/datasets/f45764fc09964c83afdadb0e378e7d59_44'
p1283
aS'https://gisago.mcgi.state.mi.us/arcgis/rest/services/DNR/dnrForestry/MapServer/44'
p1284
ag8
ag12
ag8
ag8
aS'State of  Michigan GIS Open Data'
p1285
aS'State of  Michigan GIS Open Data'
p1286
aS'AerialSurvey2015HostSpecies'
p1287
aa(lp1288
S'http://gis.michigan.opendata.arcgis.com/datasets/40b75b1b466c499dbab6aa85853cdb57_42'
p1289
aS'168719'
p1290
aS'Aerial Survey 2015 Pattern'
p1291
aS'There is no description available.'
p1292
aS'dnr###forestry'
p1293
aS'Michigan'
p1294
aS'economy'
p1295
aS'http://gis.michigan.opendata.arcgis.com/datasets/40b75b1b466c499dbab6aa85853cdb57_42.zip'
p1296
aS'http://gis.michigan.opendata.arcgis.com/datasets/40b75b1b466c499dbab6aa85853cdb57_42'
p1297
aS'https://gisago.mcgi.state.mi.us/arcgis/rest/services/DNR/dnrForestry/MapServer/42'
p1298
ag8
ag12
ag8
ag8
aS'State of  Michigan GIS Open Data'
p1299
aS'State of  Michigan GIS Open Data'
p1300
aS'AerialSurvey2015Pattern'
p1301
aa(lp1302
S'http://gis.michigan.opendata.arcgis.com/datasets/83f5a009d001473f8cd5b876b7d739ee_35'
p1303
aS'168722'
p1304
aS'Aerial Survey 2014 Severity'
p1305
aS'Aerial Survey 2014 Severity'
p1306
aS'dnr###forestry'
p1307
aS'Michigan'
p1308
aS'economy'
p1309
aS'http://gis.michigan.opendata.arcgis.com/datasets/83f5a009d001473f8cd5b876b7d739ee_35.zip'
p1310
aS'http://gis.michigan.opendata.arcgis.com/datasets/83f5a009d001473f8cd5b876b7d739ee_35'
p1311
aS'https://gisago.mcgi.state.mi.us/arcgis/rest/services/DNR/dnrForestry/MapServer/35'
p1312
ag8
ag12
ag8
ag8
aS'State of  Michigan GIS Open Data'
p1313
aS'State of  Michigan GIS Open Data'
p1314
aS'AerialSurvey2014Severity'
p1315
aa(lp1316
S'http://gis.michigan.opendata.arcgis.com/datasets/ccc9b558497f44cba1c90b1c77aef621_43'
p1317
aS'168721'
p1318
aS'Aerial Survey 2015 Disease/Pest'
p1319
aS'There is no description available.'
p1320
aS'dnr###forestry'
p1321
aS'Michigan'
p1322
aS'economy'
p1323
aS'http://gis.michigan.opendata.arcgis.com/datasets/ccc9b558497f44cba1c90b1c77aef621_43.zip'
p1324
aS'http://gis.michigan.opendata.arcgis.com/datasets/ccc9b558497f44cba1c90b1c77aef621_43'
p1325
aS'https://gisago.mcgi.state.mi.us/arcgis/rest/services/DNR/dnrForestry/MapServer/43'
p1326
ag8
ag12
ag8
ag8
aS'State of  Michigan GIS Open Data'
p1327
aS'State of  Michigan GIS Open Data'
p1328
aS'AerialSurvey2015DiseasePest'
p1329
aa(lp1330
S'http://gis.michigan.opendata.arcgis.com/datasets/8340fb8532af447a9f6e4884513c9d74_38'
p1331
aS'168724'
p1332
aS'Aerial Survey 2014 Host Species'
p1333
aS'There is no description available.'
p1334
aS'dnr###forestry'
p1335
aS'Michigan'
p1336
aS'economy'
p1337
aS'http://gis.michigan.opendata.arcgis.com/datasets/8340fb8532af447a9f6e4884513c9d74_38.zip'
p1338
aS'http://gis.michigan.opendata.arcgis.com/datasets/8340fb8532af447a9f6e4884513c9d74_38'
p1339
aS'https://gisago.mcgi.state.mi.us/arcgis/rest/services/DNR/dnrForestry/MapServer/38'
p1340
ag8
ag12
ag8
ag8
aS'State of  Michigan GIS Open Data'
p1341
aS'State of  Michigan GIS Open Data'
p1342
aS'AerialSurvey2014HostSpecies'
p1343
aa(lp1344
S'http://gis.michigan.opendata.arcgis.com/datasets/f33e5029d04042c99531f0949bc4cedf_36'
p1345
aS'168723'
p1346
aS'Aerial Survey 2014 Pattern'
p1347
aS'There is no description available.'
p1348
aS'dnr###forestry'
p1349
aS'Michigan'
p1350
aS'economy'
p1351
aS'http://gis.michigan.opendata.arcgis.com/datasets/f33e5029d04042c99531f0949bc4cedf_36.zip'
p1352
aS'http://gis.michigan.opendata.arcgis.com/datasets/f33e5029d04042c99531f0949bc4cedf_36'
p1353
aS'https://gisago.mcgi.state.mi.us/arcgis/rest/services/DNR/dnrForestry/MapServer/36'
p1354
ag8
ag12
ag8
ag8
aS'State of  Michigan GIS Open Data'
p1355
aS'State of  Michigan GIS Open Data'
p1356
aS'AerialSurvey2014Pattern'
p1357
aa(lp1358
S'http://gis.michigan.opendata.arcgis.com/datasets/da714e7e00dd494aa738d3615549f303_29'
p1359
aS'168727'
p1360
aS'Aerial Survey 2013 Severity'
p1361
aS'There is no description available.'
p1362
aS'dnr###forestry'
p1363
aS'Michigan'
p1364
aS'economy'
p1365
aS'http://gis.michigan.opendata.arcgis.com/datasets/da714e7e00dd494aa738d3615549f303_29.zip'
p1366
aS'http://gis.michigan.opendata.arcgis.com/datasets/da714e7e00dd494aa738d3615549f303_29'
p1367
aS'https://gisago.mcgi.state.mi.us/arcgis/rest/services/DNR/dnrForestry/MapServer/29'
p1368
ag8
ag12
ag8
ag8
aS'State of  Michigan GIS Open Data'
p1369
aS'State of  Michigan GIS Open Data'
p1370
aS'AerialSurvey2013Severity'
p1371
aa(lp1372
S'http://gis.michigan.opendata.arcgis.com/datasets/50758a9b1b9c4cde9f0bb2c8156101a7_30'
p1373
aS'168726'
p1374
aS'Aerial Survey 2013 Pattern'
p1375
aS'There is no description available.'
p1376
aS'dnr###forestry'
p1377
aS'Michigan'
p1378
aS'economy'
p1379
aS'http://gis.michigan.opendata.arcgis.com/datasets/50758a9b1b9c4cde9f0bb2c8156101a7_30.zip'
p1380
aS'http://gis.michigan.opendata.arcgis.com/datasets/50758a9b1b9c4cde9f0bb2c8156101a7_30'
p1381
aS'https://gisago.mcgi.state.mi.us/arcgis/rest/services/DNR/dnrForestry/MapServer/30'
p1382
ag8
ag12
ag8
ag8
aS'State of  Michigan GIS Open Data'
p1383
aS'State of  Michigan GIS Open Data'
p1384
aS'AerialSurvey2013Pattern'
p1385
aa(lp1386
S'http://gis.michigan.opendata.arcgis.com/datasets/8b635723d51e44ebb781ab1917d5889d_37'
p1387
aS'168725'
p1388
aS'Aerial Survey 2014 Disease/Pest'
p1389
aS'There is no description available.'
p1390
aS'dnr###forestry'
p1391
aS'Michigan'
p1392
aS'economy'
p1393
aS'http://gis.michigan.opendata.arcgis.com/datasets/8b635723d51e44ebb781ab1917d5889d_37.zip'
p1394
aS'http://gis.michigan.opendata.arcgis.com/datasets/8b635723d51e44ebb781ab1917d5889d_37'
p1395
aS'https://gisago.mcgi.state.mi.us/arcgis/rest/services/DNR/dnrForestry/MapServer/37'
p1396
ag8
ag12
ag8
ag8
aS'State of  Michigan GIS Open Data'
p1397
aS'State of  Michigan GIS Open Data'
p1398
aS'AerialSurvey2014DiseasePest'
p1399
aa(lp1400
S'http://gis.michigan.opendata.arcgis.com/datasets/0c9f7f97c476462bb2bca40356bc337a_31'
p1401
aS'168729'
p1402
aS'Aerial Survey 2013 Disease/Pest'
p1403
aS'There is no description available.'
p1404
aS'dnr###forestry'
p1405
aS'Michigan'
p1406
aS'economy'
p1407
aS'http://gis.michigan.opendata.arcgis.com/datasets/0c9f7f97c476462bb2bca40356bc337a_31.zip'
p1408
aS'http://gis.michigan.opendata.arcgis.com/datasets/0c9f7f97c476462bb2bca40356bc337a_31'
p1409
aS'https://gisago.mcgi.state.mi.us/arcgis/rest/services/DNR/dnrForestry/MapServer/31'
p1410
ag8
ag12
ag8
ag8
aS'State of  Michigan GIS Open Data'
p1411
aS'State of  Michigan GIS Open Data'
p1412
aS'AerialSurvey2013DiseasePest'
p1413
aa(lp1414
S'http://gis.michigan.opendata.arcgis.com/datasets/5cf732c7f5494640b7848137322c837a_32'
p1415
aS'168728'
p1416
aS'Aerial Survey 2013 Host Species'
p1417
aS'There is no description available.'
p1418
aS'dnr###forestry'
p1419
aS'Michigan'
p1420
aS'economy'
p1421
aS'http://gis.michigan.opendata.arcgis.com/datasets/5cf732c7f5494640b7848137322c837a_32.zip'
p1422
aS'http://gis.michigan.opendata.arcgis.com/datasets/5cf732c7f5494640b7848137322c837a_32'
p1423
aS'https://gisago.mcgi.state.mi.us/arcgis/rest/services/DNR/dnrForestry/MapServer/32'
p1424
ag8
ag12
ag8
ag8
aS'State of  Michigan GIS Open Data'
p1425
aS'State of  Michigan GIS Open Data'
p1426
aS'AerialSurvey2013HostSpecies'
p1427
aa(lp1428
S'http://gis.michigan.opendata.arcgis.com/datasets/7c900587079b4c9589d93dad2c736427_24'
p1429
aS'168730'
p1430
aS'Aerial Survey 2012 Severity'
p1431
aS'There is no description available.'
p1432
aS'dnr###forestry'
p1433
aS'Michigan'
p1434
aS'economy'
p1435
aS'http://gis.michigan.opendata.arcgis.com/datasets/7c900587079b4c9589d93dad2c736427_24.zip'
p1436
aS'http://gis.michigan.opendata.arcgis.com/datasets/7c900587079b4c9589d93dad2c736427_24'
p1437
aS'https://gisago.mcgi.state.mi.us/arcgis/rest/services/DNR/dnrForestry/MapServer/24'
p1438
ag8
ag12
ag8
ag8
aS'State of  Michigan GIS Open Data'
p1439
aS'State of  Michigan GIS Open Data'
p1440
aS'AerialSurvey2012Severity'
p1441
aa(lp1442
S'http://gis.michigan.opendata.arcgis.com/datasets/6dde516398d148d1aeb5867fa8971e10_25'
p1443
aS'168731'
p1444
aS'Aerial Survey 2012 Pattern'
p1445
aS'There is no description available.'
p1446
aS'dnr###forestry'
p1447
aS'Michigan'
p1448
aS'economy'
p1449
aS'http://gis.michigan.opendata.arcgis.com/datasets/6dde516398d148d1aeb5867fa8971e10_25.zip'
p1450
aS'http://gis.michigan.opendata.arcgis.com/datasets/6dde516398d148d1aeb5867fa8971e10_25'
p1451
aS'https://gisago.mcgi.state.mi.us/arcgis/rest/services/DNR/dnrForestry/MapServer/25'
p1452
ag8
ag12
ag8
ag8
aS'State of  Michigan GIS Open Data'
p1453
aS'State of  Michigan GIS Open Data'
p1454
aS'AerialSurvey2012Pattern'
p1455
aa(lp1456
S'http://gis.michigan.opendata.arcgis.com/datasets/0ae21599c2f3410185a2e970c8280ce9_18'
p1457
aS'168734'
p1458
aS'Aerial Survey 2011 Severity'
p1459
aS'There is no description available.'
p1460
aS'dnr###forestry'
p1461
aS'Michigan'
p1462
aS'economy'
p1463
aS'http://gis.michigan.opendata.arcgis.com/datasets/0ae21599c2f3410185a2e970c8280ce9_18.zip'
p1464
aS'http://gis.michigan.opendata.arcgis.com/datasets/0ae21599c2f3410185a2e970c8280ce9_18'
p1465
aS'https://gisago.mcgi.state.mi.us/arcgis/rest/services/DNR/dnrForestry/MapServer/18'
p1466
ag8
ag12
ag8
ag8
aS'State of  Michigan GIS Open Data'
p1467
aS'State of  Michigan GIS Open Data'
p1468
aS'AerialSurvey2011Severity'
p1469
aa(lp1470
S'http://gis.michigan.opendata.arcgis.com/datasets/7e9bf2fa15a74bb496a84ceece09d3d2_26'
p1471
aS'168733'
p1472
aS'Aerial Survey 2012 Disease/Pest'
p1473
aS'There is no description available.'
p1474
aS'dnr###forestry'
p1475
aS'Michigan'
p1476
aS'economy'
p1477
aS'http://gis.michigan.opendata.arcgis.com/datasets/7e9bf2fa15a74bb496a84ceece09d3d2_26.zip'
p1478
aS'http://gis.michigan.opendata.arcgis.com/datasets/7e9bf2fa15a74bb496a84ceece09d3d2_26'
p1479
aS'https://gisago.mcgi.state.mi.us/arcgis/rest/services/DNR/dnrForestry/MapServer/26'
p1480
ag8
ag12
ag8
ag8
aS'State of  Michigan GIS Open Data'
p1481
aS'State of  Michigan GIS Open Data'
p1482
aS'AerialSurvey2012DiseasePest'
p1483
aa(lp1484
S'http://gis.michigan.opendata.arcgis.com/datasets/cda8cfb1d7cb43ff994e1b28e86866a8_27'
p1485
aS'168732'
p1486
aS'Aerial Survey 2012 Host Species'
p1487
aS'There is no description available.'
p1488
aS'dnr###forestry'
p1489
aS'Michigan'
p1490
aS'economy'
p1491
aS'http://gis.michigan.opendata.arcgis.com/datasets/cda8cfb1d7cb43ff994e1b28e86866a8_27.zip'
p1492
aS'http://gis.michigan.opendata.arcgis.com/datasets/cda8cfb1d7cb43ff994e1b28e86866a8_27'
p1493
aS'https://gisago.mcgi.state.mi.us/arcgis/rest/services/DNR/dnrForestry/MapServer/27'
p1494
ag8
ag12
ag8
ag8
aS'State of  Michigan GIS Open Data'
p1495
aS'State of  Michigan GIS Open Data'
p1496
aS'AerialSurvey2012HostSpecies'
p1497
aa(lp1498
S'http://gis.michigan.opendata.arcgis.com/datasets/748edce4787e42e3a114b05d164fa6ed_16'
p1499
aS'168738'
p1500
aS'Aerial Survey 2010 Host Species'
p1501
aS'There is no description available.'
p1502
aS'dnr###forestry'
p1503
aS'Michigan'
p1504
aS'economy'
p1505
aS'http://gis.michigan.opendata.arcgis.com/datasets/748edce4787e42e3a114b05d164fa6ed_16.zip'
p1506
aS'http://gis.michigan.opendata.arcgis.com/datasets/748edce4787e42e3a114b05d164fa6ed_16'
p1507
aS'https://gisago.mcgi.state.mi.us/arcgis/rest/services/DNR/dnrForestry/MapServer/16'
p1508
ag8
ag12
ag8
ag8
aS'State of  Michigan GIS Open Data'
p1509
aS'State of  Michigan GIS Open Data'
p1510
aS'AerialSurvey2010HostSpecies'
p1511
aa(lp1512
S'http://gis.michigan.opendata.arcgis.com/datasets/5b82eaeab71742719beebd005ef42200_13'
p1513
aS'168737'
p1514
aS'Aerial Survey 2010 Severity'
p1515
aS'There is no description available.'
p1516
aS'dnr###forestry'
p1517
aS'Michigan'
p1518
aS'economy'
p1519
aS'http://gis.michigan.opendata.arcgis.com/datasets/5b82eaeab71742719beebd005ef42200_13.zip'
p1520
aS'http://gis.michigan.opendata.arcgis.com/datasets/5b82eaeab71742719beebd005ef42200_13'
p1521
aS'https://gisago.mcgi.state.mi.us/arcgis/rest/services/DNR/dnrForestry/MapServer/13'
p1522
ag8
ag12
ag8
ag8
aS'State of  Michigan GIS Open Data'
p1523
aS'State of  Michigan GIS Open Data'
p1524
aS'AerialSurvey2010Severity'
p1525
aa(lp1526
S'http://gis.michigan.opendata.arcgis.com/datasets/19600c3748f04a49a23e08bb332b4769_14'
p1527
aS'168736'
p1528
aS'Aerial Survey 2010 Pattern'
p1529
aS'There is no description available.'
p1530
aS'dnr###forestry'
p1531
aS'Michigan'
p1532
aS'economy'
p1533
aS'http://gis.michigan.opendata.arcgis.com/datasets/19600c3748f04a49a23e08bb332b4769_14.zip'
p1534
aS'http://gis.michigan.opendata.arcgis.com/datasets/19600c3748f04a49a23e08bb332b4769_14'
p1535
aS'https://gisago.mcgi.state.mi.us/arcgis/rest/services/DNR/dnrForestry/MapServer/14'
p1536
ag8
ag12
ag8
ag8
aS'State of  Michigan GIS Open Data'
p1537
aS'State of  Michigan GIS Open Data'
p1538
aS'AerialSurvey2010Pattern'
p1539
aa(lp1540
S'http://gis.michigan.opendata.arcgis.com/datasets/2f87556b25274e6a905c35bc8d9a370d_19'
p1541
aS'168735'
p1542
aS'Aerial Survey 2011 Pattern'
p1543
aS'There is no description available.'
p1544
aS'dnr###forestry'
p1545
aS'Michigan'
p1546
aS'economy'
p1547
aS'http://gis.michigan.opendata.arcgis.com/datasets/2f87556b25274e6a905c35bc8d9a370d_19.zip'
p1548
aS'http://gis.michigan.opendata.arcgis.com/datasets/2f87556b25274e6a905c35bc8d9a370d_19'
p1549
aS'https://gisago.mcgi.state.mi.us/arcgis/rest/services/DNR/dnrForestry/MapServer/19'
p1550
ag8
ag12
ag8
ag8
aS'State of  Michigan GIS Open Data'
p1551
aS'State of  Michigan GIS Open Data'
p1552
aS'AerialSurvey2011Pattern'
p1553
aa(lp1554
S'http://gis.michigan.opendata.arcgis.com/datasets/54755ed2e67942a5b147fee8df7c2214_15'
p1555
aS'168739'
p1556
aS'Aerial Survey 2010 Disease/Pest'
p1557
aS'There is no description available.'
p1558
aS'dnr###forestry'
p1559
aS'Michigan'
p1560
aS'economy'
p1561
aS'http://gis.michigan.opendata.arcgis.com/datasets/54755ed2e67942a5b147fee8df7c2214_15.zip'
p1562
aS'http://gis.michigan.opendata.arcgis.com/datasets/54755ed2e67942a5b147fee8df7c2214_15'
p1563
aS'https://gisago.mcgi.state.mi.us/arcgis/rest/services/DNR/dnrForestry/MapServer/15'
p1564
ag8
ag12
ag8
ag8
aS'State of  Michigan GIS Open Data'
p1565
aS'State of  Michigan GIS Open Data'
p1566
aS'AerialSurvey2010DiseasePest'
p1567
aa(lp1568
S'http://gis.michigan.opendata.arcgis.com/datasets/d07b75149ae64a2da75ba9a01a4e11e6_5'
p1569
aS'168740'
p1570
aS'Adjusted Census Urban Boundaries'
p1571
aS'"The Adjusted Census Urban Boundary (ACUB) Layer is a single polygon representing the boundary of an individual ACUB. The Adjusted Census Urban Boundary includes the following area: urban cluster area (where minimum population is 5,000) or urbanized area as designated by the U.S. Census; the entire corporate limits of any incorporated city or village designated as partially urban by the Census; and adjacent area which meets specified criteria and is agreed upon by MDOT in cooperation with the responsible local officials. Adjusted Census Urban Boundaries are subject to approval by the Federal Highway Administration. More Metadata"'
p1572
aS'acub###michigan###michigan geographic framework###boundaries###mgf###census###demographics'
p1573
aS'Michigan'
p1574
aS'societyboundaries'
p1575
aS'http://gis.michigan.opendata.arcgis.com/datasets/d07b75149ae64a2da75ba9a01a4e11e6_5.zip'
p1576
aS'http://gis.michigan.opendata.arcgis.com/datasets/d07b75149ae64a2da75ba9a01a4e11e6_5'
p1577
aS'https://gisago.mcgi.state.mi.us/arcgis/rest/services/OpenData/michigan_geographic_framework/MapServer/5'
p1578
ag8
ag12
ag8
ag8
aS'State of  Michigan GIS Open Data'
p1579
aS'State of  Michigan GIS Open Data'
p1580
aS'AdjustedCensusUrbanBoundaries'
p1581
aa(lp1582
S'http://gis.michigan.opendata.arcgis.com/datasets/3b764dd26306487997b013fc0e52297b_0'
p1583
aS'168741'
p1584
aS'2014 Voting Precincts'
p1585
aS'"The 2014 Precinct data set represents the geography used for the 2014 election cycle. Information was collected from local election officials along with county/local GIS authorities as well as a validation done by most, but not all jurisdictions. BOE maintains every effort to keep this data correct, however the data set is only as good as the information received from the local election official. More Metadata"'
p1586
aS'election###boe###boundaries###michigan###vtd###vote###mdos'
p1587
aS'Michigan'
p1588
aS'boundaries'
p1589
aS'http://gis.michigan.opendata.arcgis.com/datasets/3b764dd26306487997b013fc0e52297b_0.zip'
p1590
aS'http://gis.michigan.opendata.arcgis.com/datasets/3b764dd26306487997b013fc0e52297b_0'
p1591
aS'https://gisago.mcgi.state.mi.us/arcgis/rest/services/OpenData/boundaries/MapServer/0'
p1592
ag8
ag12
ag8
ag8
aS'State of  Michigan GIS Open Data'
p1593
aS'State of  Michigan GIS Open Data'
p1594
aS'2014VotingPrecincts'
p1595
aa(lp1596
S'http://gis.michigan.opendata.arcgis.com/datasets/2bcfd62c243e462ea4ff040f8581fe5f_6'
p1597
aS'168744'
p1598
aS'2012 MDOT Traffic Volumes'
p1599
aS'"The Annual Average Daily Traffic (AADT) is the estimated mean daily traffic volume and the Commercial Annual Average Daily Traffic (CAADT) is the estimated mean daily traffic volume for commercial vehicles. Data Dictionary Data Quality: For continuous sites, estimates are calculated by summing the Annual Average Days of the Week and dividing by seven. For short-count sites, estimates are made by factoring a short count using seasonal and day-of-week adjustment factors. Data Coverage: The dataset covers the entire State of Michigan (state-owned) Trunkline system. Update Cycle: AADT & CAADT volumes are created and released every year. Contact: Kevin Krzeminski"'
p1600
aS'michigan###roadway###aadt###transportation###mi###open data###mdot###caadt###volume###traffic'
p1601
aS'Michigan'
p1602
aS'transportationintelligenceMilitary'
p1603
aS'http://gis.michigan.opendata.arcgis.com/datasets/2bcfd62c243e462ea4ff040f8581fe5f_6.zip'
p1604
aS'http://gis.michigan.opendata.arcgis.com/datasets/2bcfd62c243e462ea4ff040f8581fe5f_6'
p1605
aS'https://services2.arcgis.com/67lKNkQ2TO1I3lhR/arcgis/rest/services/mdot_traffic_volumes_archive/FeatureServer/6'
p1606
ag8
ag12
ag8
ag8
aS'State of  Michigan GIS Open Data'
p1607
aS'State of  Michigan GIS Open Data'
p1608
aS'2012MDOTTrafficVolumes'
p1609
aa(lp1610
S'http://gis.michigan.opendata.arcgis.com/datasets/2bcfd62c243e462ea4ff040f8581fe5f_7'
p1611
aS'168743'
p1612
aS'2013 MDOT Traffic Volumes'
p1613
aS'"The Annual Average Daily Traffic (AADT) is the estimated mean daily traffic volume and the Commercial Annual Average Daily Traffic (CAADT) is the estimated mean daily traffic volume for commercial vehicles. Data Dictionary Data Quality: For continuous sites, estimates are calculated by summing the Annual Average Days of the Week and dividing by seven. For short-count sites, estimates are made by factoring a short count using seasonal and day-of-week adjustment factors. Data Coverage: The dataset covers the entire State of Michigan (state-owned) Trunkline system. Update Cycle: AADT & CAADT volumes are created and released every year. Contact: Kevin Krzeminski"'
p1614
aS'michigan###roadway###aadt###transportation###mi###open data###mdot###caadt###volume###traffic'
p1615
aS'Michigan'
p1616
aS'transportationintelligenceMilitary'
p1617
aS'http://gis.michigan.opendata.arcgis.com/datasets/2bcfd62c243e462ea4ff040f8581fe5f_7.zip'
p1618
aS'http://gis.michigan.opendata.arcgis.com/datasets/2bcfd62c243e462ea4ff040f8581fe5f_7'
p1619
aS'https://services2.arcgis.com/67lKNkQ2TO1I3lhR/arcgis/rest/services/mdot_traffic_volumes_archive/FeatureServer/7'
p1620
ag8
ag12
ag8
ag8
aS'State of  Michigan GIS Open Data'
p1621
aS'State of  Michigan GIS Open Data'
p1622
aS'2013MDOTTrafficVolumes'
p1623
aa(lp1624
S'http://gis.michigan.opendata.arcgis.com/datasets/2bcfd62c243e462ea4ff040f8581fe5f_8'
p1625
aS'168742'
p1626
aS'2014 MDOT Traffic Volumes'
p1627
aS'"The Annual Average Daily Traffic (AADT) is the estimated mean daily traffic volume and the Commercial Annual Average Daily Traffic (CAADT) is the estimated mean daily traffic volume for commercial vehicles. Data Dictionary Data Quality: For continuous sites, estimates are calculated by summing the Annual Average Days of the Week and dividing by seven. For short-count sites, estimates are made by factoring a short count using seasonal and day-of-week adjustment factors. Data Coverage: The dataset covers the entire State of Michigan (state-owned) Trunkline system. Update Cycle: AADT & CAADT volumes are created and released every year. Contact: Kevin Krzeminski"'
p1628
aS'michigan###roadway###aadt###transportation###mi###open data###mdot###caadt###volume###traffic'
p1629
aS'Michigan'
p1630
aS'transportationintelligenceMilitary'
p1631
aS'http://gis.michigan.opendata.arcgis.com/datasets/2bcfd62c243e462ea4ff040f8581fe5f_8.zip'
p1632
aS'http://gis.michigan.opendata.arcgis.com/datasets/2bcfd62c243e462ea4ff040f8581fe5f_8'
p1633
aS'https://services2.arcgis.com/67lKNkQ2TO1I3lhR/arcgis/rest/services/mdot_traffic_volumes_archive/FeatureServer/8'
p1634
ag8
ag12
ag8
ag8
aS'State of  Michigan GIS Open Data'
p1635
aS'State of  Michigan GIS Open Data'
p1636
aS'2014MDOTTrafficVolumes'
p1637
aa(lp1638
S'http://gis.michigan.opendata.arcgis.com/datasets/2bcfd62c243e462ea4ff040f8581fe5f_4'
p1639
aS'168746'
p1640
aS'2010 MDOT Traffic Volumes'
p1641
aS'"The Annual Average Daily Traffic (AADT) is the estimated mean daily traffic volume and the Commercial Annual Average Daily Traffic (CAADT) is the estimated mean daily traffic volume for commercial vehicles. Data Dictionary Data Quality: For continuous sites, estimates are calculated by summing the Annual Average Days of the Week and dividing by seven. For short-count sites, estimates are made by factoring a short count using seasonal and day-of-week adjustment factors. Data Coverage: The dataset covers the entire State of Michigan (state-owned) Trunkline system. Update Cycle: AADT & CAADT volumes are created and released every year. Contact: Kevin Krzeminski"'
p1642
aS'michigan###roadway###aadt###transportation###mi###open data###mdot###caadt###volume###traffic'
p1643
aS'Michigan'
p1644
aS'transportationintelligenceMilitary'
p1645
aS'http://gis.michigan.opendata.arcgis.com/datasets/2bcfd62c243e462ea4ff040f8581fe5f_4.zip'
p1646
aS'http://gis.michigan.opendata.arcgis.com/datasets/2bcfd62c243e462ea4ff040f8581fe5f_4'
p1647
aS'https://services2.arcgis.com/67lKNkQ2TO1I3lhR/arcgis/rest/services/mdot_traffic_volumes_archive/FeatureServer/4'
p1648
ag8
ag12
ag8
ag8
aS'State of  Michigan GIS Open Data'
p1649
aS'State of  Michigan GIS Open Data'
p1650
aS'2010MDOTTrafficVolumes'
p1651
aa(lp1652
S'http://gis.michigan.opendata.arcgis.com/datasets/2bcfd62c243e462ea4ff040f8581fe5f_5'
p1653
aS'168745'
p1654
aS'2011 MDOT Traffic Volumes'
p1655
aS'"The Annual Average Daily Traffic (AADT) is the estimated mean daily traffic volume and the Commercial Annual Average Daily Traffic (CAADT) is the estimated mean daily traffic volume for commercial vehicles. Data Dictionary Data Quality: For continuous sites, estimates are calculated by summing the Annual Average Days of the Week and dividing by seven. For short-count sites, estimates are made by factoring a short count using seasonal and day-of-week adjustment factors. Data Coverage: The dataset covers the entire State of Michigan (state-owned) Trunkline system. Update Cycle: AADT & CAADT volumes are created and released every year. Contact: Kevin Krzeminski"'
p1656
aS'michigan###roadway###aadt###transportation###mi###open data###mdot###caadt###volume###traffic'
p1657
aS'Michigan'
p1658
aS'transportationintelligenceMilitary'
p1659
aS'http://gis.michigan.opendata.arcgis.com/datasets/2bcfd62c243e462ea4ff040f8581fe5f_5.zip'
p1660
aS'http://gis.michigan.opendata.arcgis.com/datasets/2bcfd62c243e462ea4ff040f8581fe5f_5'
p1661
aS'https://services2.arcgis.com/67lKNkQ2TO1I3lhR/arcgis/rest/services/mdot_traffic_volumes_archive/FeatureServer/5'
p1662
ag8
ag12
ag8
ag8
aS'State of  Michigan GIS Open Data'
p1663
aS'State of  Michigan GIS Open Data'
p1664
aS'2011MDOTTrafficVolumes'
p1665
aa(lp1666
S'http://gis.michigan.opendata.arcgis.com/datasets/2bcfd62c243e462ea4ff040f8581fe5f_3'
p1667
aS'168749'
p1668
aS'2009 MDOT Traffic Volumes'
p1669
aS'"The Annual Average Daily Traffic (AADT) is the estimated mean daily traffic volume and the Commercial Annual Average Daily Traffic (CAADT) is the estimated mean daily traffic volume for commercial vehicles. Data Dictionary Data Quality: For continuous sites, estimates are calculated by summing the Annual Average Days of the Week and dividing by seven. For short-count sites, estimates are made by factoring a short count using seasonal and day-of-week adjustment factors. Data Coverage: The dataset covers the entire State of Michigan (state-owned) Trunkline system. Update Cycle: AADT & CAADT volumes are created and released every year. Contact: Kevin Krzeminski"'
p1670
aS'michigan###roadway###aadt###transportation###mi###open data###mdot###caadt###volume###traffic'
p1671
aS'Michigan'
p1672
aS'transportationintelligenceMilitary'
p1673
aS'http://gis.michigan.opendata.arcgis.com/datasets/2bcfd62c243e462ea4ff040f8581fe5f_3.zip'
p1674
aS'http://gis.michigan.opendata.arcgis.com/datasets/2bcfd62c243e462ea4ff040f8581fe5f_3'
p1675
aS'https://services2.arcgis.com/67lKNkQ2TO1I3lhR/arcgis/rest/services/mdot_traffic_volumes_archive/FeatureServer/3'
p1676
ag8
ag12
ag8
ag8
aS'State of  Michigan GIS Open Data'
p1677
aS'State of  Michigan GIS Open Data'
p1678
aS'2009MDOTTrafficVolumes'
p1679
aa(lp1680
S'http://gis.michigan.opendata.arcgis.com/datasets/172a00f7218b455299682f4d76562757_13'
p1681
aS'168748'
p1682
aS'2010 Census Tracts'
p1683
aS'2010 Census Tracts from the Michigan Geographic Framework (MGF) base map. Census tracts are small areas created for statistical purposes that usually average about 4000 people More Metadata'
p1684
aS'michigan###michigan geographic framework###boundaries###mgf###census###demographics'
p1685
aS'Michigan'
p1686
aS'societyboundaries'
p1687
aS'http://gis.michigan.opendata.arcgis.com/datasets/172a00f7218b455299682f4d76562757_13.zip'
p1688
aS'http://gis.michigan.opendata.arcgis.com/datasets/172a00f7218b455299682f4d76562757_13'
p1689
aS'https://gisago.mcgi.state.mi.us/arcgis/rest/services/OpenData/michigan_geographic_framework/MapServer/13'
p1690
ag8
ag12
ag8
ag8
aS'State of  Michigan GIS Open Data'
p1691
aS'State of  Michigan GIS Open Data'
p1692
aS'2010CensusTracts'
p1693
aa(lp1694
S'http://gis.michigan.opendata.arcgis.com/datasets/b3853ce50a754bc99e4b04ce405bbc31_14'
p1695
aS'168747'
p1696
aS'2010 Block Groups'
p1697
aS'"2010 Block Groups from the Michigan Geographic Framework (MGF) base map. Block groups (BG\xces) are combinations of census blocks within a census tract or BNA that share the same first digit in their identifying numbers. For example, BG 3 within a particular census tract comprises all blocks numbered between 301 and 399. A census tract or BNA contains a maximum of nine BGs. BG2010 consists of the 6 digit tract number followed by the 1 digit block group number. More Metadata"'
p1698
aS'michigan###michigan geographic framework###boundaries###mgf###census###demographics'
p1699
aS'Michigan'
p1700
aS'societyboundaries'
p1701
aS'http://gis.michigan.opendata.arcgis.com/datasets/b3853ce50a754bc99e4b04ce405bbc31_14.zip'
p1702
aS'http://gis.michigan.opendata.arcgis.com/datasets/b3853ce50a754bc99e4b04ce405bbc31_14'
p1703
aS'https://gisago.mcgi.state.mi.us/arcgis/rest/services/OpenData/michigan_geographic_framework/MapServer/14'
p1704
ag8
ag12
ag8
ag8
aS'State of  Michigan GIS Open Data'
p1705
aS'State of  Michigan GIS Open Data'
p1706
aS'2010BlockGroups'
p1707
aa(lp1708
S'http://gis.michigan.opendata.arcgis.com/datasets/2bcfd62c243e462ea4ff040f8581fe5f_1'
p1709
aS'168751'
p1710
aS'2007 MDOT Traffic Volumes'
p1711
aS'"The Annual Average Daily Traffic (AADT) is the estimated mean daily traffic volume and the Commercial Annual Average Daily Traffic (CAADT) is the estimated mean daily traffic volume for commercial vehicles. Data Dictionary Data Quality: For continuous sites, estimates are calculated by summing the Annual Average Days of the Week and dividing by seven. For short-count sites, estimates are made by factoring a short count using seasonal and day-of-week adjustment factors. Data Coverage: The dataset covers the entire State of Michigan (state-owned) Trunkline system. Update Cycle: AADT & CAADT volumes are created and released every year. Contact: Kevin Krzeminski"'
p1712
aS'michigan###roadway###aadt###transportation###mi###open data###mdot###caadt###volume###traffic'
p1713
aS'Michigan'
p1714
aS'transportationintelligenceMilitary'
p1715
aS'http://gis.michigan.opendata.arcgis.com/datasets/2bcfd62c243e462ea4ff040f8581fe5f_1.zip'
p1716
aS'http://gis.michigan.opendata.arcgis.com/datasets/2bcfd62c243e462ea4ff040f8581fe5f_1'
p1717
aS'https://services2.arcgis.com/67lKNkQ2TO1I3lhR/arcgis/rest/services/mdot_traffic_volumes_archive/FeatureServer/1'
p1718
ag8
ag12
ag8
ag8
aS'State of  Michigan GIS Open Data'
p1719
aS'State of  Michigan GIS Open Data'
p1720
aS'2007MDOTTrafficVolumes'
p1721
aa(lp1722
S'http://gis.michigan.opendata.arcgis.com/datasets/734325ff233845e68640af521f38bfa0_20'
p1723
aS'168581'
p1724
aS'Spruce Budworm 2004'
p1725
aS'Spruce Budworm 2004 includes the areas derived from the Aerial Survey analysis completed by the US Forest Service and the Michigan Department of Natural Resources.'
p1726
aS'dnr###forestry'
p1727
aS'Michigan'
p1728
aS'economy'
p1729
aS'http://gis.michigan.opendata.arcgis.com/datasets/734325ff233845e68640af521f38bfa0_20.zip'
p1730
aS'http://gis.michigan.opendata.arcgis.com/datasets/734325ff233845e68640af521f38bfa0_20'
p1731
aS'https://gisago.mcgi.state.mi.us/arcgis/rest/services/DNR/dnrForestPlanning/MapServer/20'
p1732
ag8
ag12
ag8
ag8
aS'State of  Michigan GIS Open Data'
p1733
aS'State of  Michigan GIS Open Data'
p1734
aS'SpruceBudworm2004'
p1735
aa(lp1736
S'http://gis.michigan.opendata.arcgis.com/datasets/36d7575d00724fe1b4dfde60222a814d_21'
p1737
aS'168580'
p1738
aS'Spruce Budworm 2005'
p1739
aS'Spruce Budworm 2005 includes the areas derived from the Aerial Survey analysis completed by the US Forest Service and the Michigan Department of Natural Resources.'
p1740
aS'dnr###forestry'
p1741
aS'Michigan'
p1742
aS'economy'
p1743
aS'http://gis.michigan.opendata.arcgis.com/datasets/36d7575d00724fe1b4dfde60222a814d_21.zip'
p1744
aS'http://gis.michigan.opendata.arcgis.com/datasets/36d7575d00724fe1b4dfde60222a814d_21'
p1745
aS'https://gisago.mcgi.state.mi.us/arcgis/rest/services/DNR/dnrForestPlanning/MapServer/21'
p1746
ag8
ag12
ag8
ag8
aS'State of  Michigan GIS Open Data'
p1747
aS'State of  Michigan GIS Open Data'
p1748
aS'SpruceBudworm2005'
p1749
aa(lp1750
S'http://gis.michigan.opendata.arcgis.com/datasets/c84dc34e49e94c2d942223bfa87268c7_17'
p1751
aS'168584'
p1752
aS'Spruce Budworm 2001'
p1753
aS'Spruce Budworm 2001 includes the areas derived from the Aerial Survey analysis completed by the US Forest Service and the Michigan Department of Natural Resources.'
p1754
aS'forestry'
p1755
aS'Michigan'
p1756
aS'economy'
p1757
aS'http://gis.michigan.opendata.arcgis.com/datasets/c84dc34e49e94c2d942223bfa87268c7_17.zip'
p1758
aS'http://gis.michigan.opendata.arcgis.com/datasets/c84dc34e49e94c2d942223bfa87268c7_17'
p1759
aS'https://gisago.mcgi.state.mi.us/arcgis/rest/services/DNR/dnrForestPlanning/MapServer/17'
p1760
ag8
ag12
ag8
ag8
aS'State of  Michigan GIS Open Data'
p1761
aS'State of  Michigan GIS Open Data'
p1762
aS'SpruceBudworm2001'
p1763
aa(lp1764
S'http://gis.michigan.opendata.arcgis.com/datasets/2d27163e3819446bb3956474fda3fc11_26'
p1765
aS'168589'
p1766
aS'River Valley Segments'
p1767
aS'Michigan River Valley Segments More Metadata'
p1768
aS'hydro###michigan###deq'
p1769
aS'Michigan'
p1770
aS'geoscientificInformationinlandWaters'
p1771
aS'http://gis.michigan.opendata.arcgis.com/datasets/2d27163e3819446bb3956474fda3fc11_26.zip'
p1772
aS'http://gis.michigan.opendata.arcgis.com/datasets/2d27163e3819446bb3956474fda3fc11_26'
p1773
aS'https://gisago.mcgi.state.mi.us/arcgis/rest/services/OpenData/hydro/MapServer/26'
p1774
ag8
ag12
ag8
ag8
aS'State of  Michigan GIS Open Data'
p1775
aS'State of  Michigan GIS Open Data'
p1776
aS'RiverValleySegments'
p1777
aa(lp1778
S'http://gis.michigan.opendata.arcgis.com/datasets/0d2e2e4c864648d7ad0825569906dcba_14'
p1779
aS'168588'
p1780
aS'Saginaw Bay (Lake Huron) Shoreline'
p1781
aS'Saginaw Bay (Lake Huron) Shoreline More Metadata'
p1782
aS'hydro###michigan'
p1783
aS'Michigan'
p1784
aS'geoscientificInformationinlandWaters'
p1785
aS'http://gis.michigan.opendata.arcgis.com/datasets/0d2e2e4c864648d7ad0825569906dcba_14.zip'
p1786
aS'http://gis.michigan.opendata.arcgis.com/datasets/0d2e2e4c864648d7ad0825569906dcba_14'
p1787
aS'https://gisago.mcgi.state.mi.us/arcgis/rest/services/OpenData/hydro/MapServer/14'
p1788
ag8
ag12
ag8
ag8
aS'State of  Michigan GIS Open Data'
p1789
aS'State of  Michigan GIS Open Data'
p1790
aS'SaginawBayLakeHuronShoreline'
p1791
aa(lp1792
S'http://gis.michigan.opendata.arcgis.com/datasets/23ff824509bb4ceb94db6a4d5d3b0e64_3'
p1793
aS'168587'
p1794
aS'Saginaw Bay (Lake Huron) Bathymetric Contours'
p1795
aS'Bathymetric Contours in Saginaw Bay (Lake Huron) More Metadata'
p1796
aS'elevation###michigan###hydro###topography'
p1797
aS'Michigan'
p1798
aS'geoscientificInformationinlandWaterselevation'
p1799
aS'http://gis.michigan.opendata.arcgis.com/datasets/23ff824509bb4ceb94db6a4d5d3b0e64_3.zip'
p1800
aS'http://gis.michigan.opendata.arcgis.com/datasets/23ff824509bb4ceb94db6a4d5d3b0e64_3'
p1801
aS'https://gisago.mcgi.state.mi.us/arcgis/rest/services/OpenData/elevation/MapServer/3'
p1802
ag8
ag12
ag8
ag8
aS'State of  Michigan GIS Open Data'
p1803
aS'State of  Michigan GIS Open Data'
p1804
aS'SaginawBayLakeHuronBathymetricContours'
p1805
aa(lp1806
S'http://gis.michigan.opendata.arcgis.com/datasets/f40e3bf5815e4045a68c53af572690f6_10'
p1807
aS'168586'
p1808
aS'School Districts'
p1809
aS'School Districts from the Michigan Geographic Framework (MGF) base map. These are Local Education Agency (LEA) school districts as defined under MCL 380.6 and as organized under MCL 380.11a (general powers school district) or under part 6 (district of the first class) of the Revised School Code. More Metadata'
p1810
aS'michigan###michigan geographic framework###boundaries###mgf###education'
p1811
aS'Michigan'
p1812
aS'societyboundaries'
p1813
aS'http://gis.michigan.opendata.arcgis.com/datasets/f40e3bf5815e4045a68c53af572690f6_10.zip'
p1814
aS'http://gis.michigan.opendata.arcgis.com/datasets/f40e3bf5815e4045a68c53af572690f6_10'
p1815
aS'https://gisago.mcgi.state.mi.us/arcgis/rest/services/OpenData/michigan_geographic_framework/MapServer/10'
p1816
ag8
ag12
ag8
ag8
aS'State of  Michigan GIS Open Data'
p1817
aS'State of  Michigan GIS Open Data'
p1818
aS'SchoolDistricts'
p1819
aa(lp1820
S'http://gis.michigan.opendata.arcgis.com/datasets/96f55882b15040fbb1d32baf17897ec8_16'
p1821
aS'168585'
p1822
aS'Senate Districts'
p1823
aS'Senate Districts from the Michigan Geographic Framework (MGF) base map. 2011 Apportionment Plan as enacted by PA 129 of 2011. More Metadata'
p1824
aS'boundaries###michigan geographic framework###michigan###mgf###political'
p1825
aS'Michigan'
p1826
aS'boundaries'
p1827
aS'http://gis.michigan.opendata.arcgis.com/datasets/96f55882b15040fbb1d32baf17897ec8_16.zip'
p1828
aS'http://gis.michigan.opendata.arcgis.com/datasets/96f55882b15040fbb1d32baf17897ec8_16'
p1829
aS'https://gisago.mcgi.state.mi.us/arcgis/rest/services/OpenData/michigan_geographic_framework/MapServer/16'
p1830
ag8
ag12
ag8
ag8
aS'State of  Michigan GIS Open Data'
p1831
aS'State of  Michigan GIS Open Data'
p1832
aS'SenateDistricts'
p1833
aa(lp1834
S'http://gis.michigan.opendata.arcgis.com/datasets/45c3c91882054b688bde241db449aa71_9'
p1835
aS'168590'
p1836
aS'Railroads'
p1837
aS'Active railroad tracks from the Michigan Geographic Framework (MGF) base map. More Metadata'
p1838
aS'michigan###michigan geographic framework###transportation###mgf'
p1839
aS'Michigan'
p1840
aS'transportationintelligenceMilitary'
p1841
aS'http://gis.michigan.opendata.arcgis.com/datasets/45c3c91882054b688bde241db449aa71_9.zip'
p1842
aS'http://gis.michigan.opendata.arcgis.com/datasets/45c3c91882054b688bde241db449aa71_9'
p1843
aS'https://gisago.mcgi.state.mi.us/arcgis/rest/services/OpenData/michigan_geographic_framework/MapServer/9'
p1844
ag8
ag12
ag8
ag8
aS'State of  Michigan GIS Open Data'
p1845
aS'State of  Michigan GIS Open Data'
p1846
aS'Railroads'
p1847
aa(lp1848
S'http://gis.michigan.opendata.arcgis.com/datasets/8f17d688ad814b34898f58904949e945_1'
p1849
aS'168591'
p1850
aS'Quaternary Geology'
p1851
aS'Michigan Quaternary Geology More Metadata'
p1852
aS'michigan###geology'
p1853
aS'Michigan'
p1854
aS'geoscientificInformationgeoscientificInformation'
p1855
aS'http://gis.michigan.opendata.arcgis.com/datasets/8f17d688ad814b34898f58904949e945_1.zip'
p1856
aS'http://gis.michigan.opendata.arcgis.com/datasets/8f17d688ad814b34898f58904949e945_1'
p1857
aS'https://gisago.mcgi.state.mi.us/arcgis/rest/services/OpenData/geology/MapServer/1'
p1858
ag8
ag12
ag8
ag8
aS'State of  Michigan GIS Open Data'
p1859
aS'State of  Michigan GIS Open Data'
p1860
aS'QuaternaryGeology'
p1861
aa(lp1862
S'http://gis.michigan.opendata.arcgis.com/datasets/46321d4eac7c436d858ba64870c91075_0'
p1863
aS'168592'
p1864
aS'Public Libraries'
p1865
aS'Name and address of public libraries in the city. Data may not reflect recent closures.'
p1866
aS'Detroit###Library###Amenities###Public'
p1867
aS'Michigan'
p1868
ag8
aS'http://gis.michigan.opendata.arcgis.com/datasets/46321d4eac7c436d858ba64870c91075_0.zip'
p1869
aS'http://gis.michigan.opendata.arcgis.com/datasets/46321d4eac7c436d858ba64870c91075_0'
p1870
aS'https://services2.arcgis.com/HsXtOCMp1Nis1Ogr/arcgis/rest/services/MyMapService/FeatureServer/0'
p1871
ag8
ag12
ag8
ag8
aS'State of  Michigan GIS Open Data'
p1872
aS'State of  Michigan GIS Open Data'
p1873
aS'PublicLibraries'
p1874
aa(lp1875
S'http://gis.michigan.opendata.arcgis.com/datasets/b30f092aadb14517bdab590824d10490_8'
p1876
aS'168596'
p1877
aS'Prescribed Burn Point Locations'
p1878
aS'The DNR Prescribed Burn Point Locations are from the Prescribed Burn database managed by DTMB-CSSTP. These represent 2014 prescribed burns greater than 10 acres.'
p1879
aS'prescribed burn###dnr###fire'
p1880
aS'Michigan'
p1881
ag8
aS'http://gis.michigan.opendata.arcgis.com/datasets/b30f092aadb14517bdab590824d10490_8.zip'
p1882
aS'http://gis.michigan.opendata.arcgis.com/datasets/b30f092aadb14517bdab590824d10490_8'
p1883
aS'https://gisago.mcgi.state.mi.us/arcgis/rest/services/DNR/dnrForestry/MapServer/8'
p1884
ag8
ag12
ag8
ag8
aS'State of  Michigan GIS Open Data'
p1885
aS'State of  Michigan GIS Open Data'
p1886
aS'PrescribedBurnPointLocations'
p1887
aa(lp1888
S'http://gis.michigan.opendata.arcgis.com/datasets/5e087317ab6a4fb28abe4d41d8204e95_4'
p1889
aS'168595'
p1890
aS'Public Land Survey Sections'
p1891
aS"Survey sections and private claims for Michigan's Upper and Lower Peninsulas More Metadata"
p1892
aS'plss###boundaries###michigan###dnr'
p1893
aS'Michigan'
p1894
aS'boundaries'
p1895
aS'http://gis.michigan.opendata.arcgis.com/datasets/5e087317ab6a4fb28abe4d41d8204e95_4.zip'
p1896
aS'http://gis.michigan.opendata.arcgis.com/datasets/5e087317ab6a4fb28abe4d41d8204e95_4'
p1897
aS'https://gisago.mcgi.state.mi.us/arcgis/rest/services/OpenData/boundaries/MapServer/4'
p1898
ag8
ag12
ag8
ag8
aS'State of  Michigan GIS Open Data'
p1899
aS'State of  Michigan GIS Open Data'
p1900
aS'PublicLandSurveySections'
p1901
aa(lp1902
S'http://gis.michigan.opendata.arcgis.com/datasets/a38e5096220b419a84c105888ffcc33a_3'
p1903
aS'168594'
p1904
aS'Public Land Survey Quarter-Quarter Sections'
p1905
aS'"County town, range, section, quarter/quarter, quarter polygons, town, range, section, government lot polygons, or private claim polygons. More Metadata"'
p1906
aS'plss###boundaries###michigan###dnr'
p1907
aS'Michigan'
p1908
aS'boundaries'
p1909
aS'http://gis.michigan.opendata.arcgis.com/datasets/a38e5096220b419a84c105888ffcc33a_3.zip'
p1910
aS'http://gis.michigan.opendata.arcgis.com/datasets/a38e5096220b419a84c105888ffcc33a_3'
p1911
aS'https://gisago.mcgi.state.mi.us/arcgis/rest/services/OpenData/boundaries/MapServer/3'
p1912
ag8
ag12
ag8
ag8
aS'State of  Michigan GIS Open Data'
p1913
aS'State of  Michigan GIS Open Data'
p1914
aS'PublicLandSurveyQuarterQuarterSections'
p1915
aa(lp1916
S'http://gis.michigan.opendata.arcgis.com/datasets/90059f787e744db3a0ef7add7d679548_5'
p1917
aS'168593'
p1918
aS'Public Land Survey Town Range'
p1919
aS'More Metadata'
p1920
aS'plss###boundaries###michigan###dnr'
p1921
aS'Michigan'
p1922
aS'boundaries'
p1923
aS'http://gis.michigan.opendata.arcgis.com/datasets/90059f787e744db3a0ef7add7d679548_5.zip'
p1924
aS'http://gis.michigan.opendata.arcgis.com/datasets/90059f787e744db3a0ef7add7d679548_5'
p1925
aS'https://gisago.mcgi.state.mi.us/arcgis/rest/services/OpenData/boundaries/MapServer/5'
p1926
ag8
ag12
ag8
ag8
aS'State of  Michigan GIS Open Data'
p1927
aS'State of  Michigan GIS Open Data'
p1928
aS'PublicLandSurveyTownRange'
p1929
aa(lp1930
S'http://gis.michigan.opendata.arcgis.com/datasets/3d20c7a9ce5b47159e96a2293f3cfcbc_0'
p1931
aS'168598'
p1932
aS'Point Location Assessment Units'
p1933
aS'Michigan Point Location Assessment Units More Metadata'
p1934
aS'hydro###michigan'
p1935
aS'Michigan'
p1936
aS'geoscientificInformationinlandWaters'
p1937
aS'http://gis.michigan.opendata.arcgis.com/datasets/3d20c7a9ce5b47159e96a2293f3cfcbc_0.zip'
p1938
aS'http://gis.michigan.opendata.arcgis.com/datasets/3d20c7a9ce5b47159e96a2293f3cfcbc_0'
p1939
aS'https://gisago.mcgi.state.mi.us/arcgis/rest/services/OpenData/hydro/MapServer/0'
p1940
ag8
ag12
ag8
ag8
aS'State of  Michigan GIS Open Data'
p1941
aS'State of  Michigan GIS Open Data'
p1942
aS'PointLocationAssessmentUnits'
p1943
aa(lp1944
S'http://gis.michigan.opendata.arcgis.com/datasets/435aeaf8863d4a2ea8ebdab669a52543_19'
p1945
aS'168597'
p1946
aS'Potential Wetland Restoration'
p1947
aS'Michigan Potential Wetland Restoration More Metadata'
p1948
aS'michigan###hydro###environment'
p1949
aS'Michigan'
p1950
aS'geoscientificInformationenvironmentinlandWaters'
p1951
aS'http://gis.michigan.opendata.arcgis.com/datasets/435aeaf8863d4a2ea8ebdab669a52543_19.zip'
p1952
aS'http://gis.michigan.opendata.arcgis.com/datasets/435aeaf8863d4a2ea8ebdab669a52543_19'
p1953
aS'https://gisago.mcgi.state.mi.us/arcgis/rest/services/OpenData/hydro/MapServer/19'
p1954
ag8
ag12
ag8
ag8
aS'State of  Michigan GIS Open Data'
p1955
aS'State of  Michigan GIS Open Data'
p1956
aS'PotentialWetlandRestoration'
p1957
aa(lp1958
S'http://gis.michigan.opendata.arcgis.com/datasets/a86598be317040febc67941ac7a2768e_18'
p1959
aS'168601'
p1960
aS'National Wetlands Inventory'
p1961
aS'"This data set represents the extent, approximate location and type of wetlands and deepwater habitats in the conterminous United States. These data delineate the areal extent of wetlands and surface waters as defined by Cowardin et al. (1979). Certain wetland habitats are excluded from the National mapping program because of the limitations of aerial imagery as the primary data source used to detect wetlands. These habitats include seagrasses or submerged aquatic vegetation that are found in the intertidal and subtidal zones of estuaries and near shore coastal waters. Some deepwater reef communities (coral or tuberficid worm reefs) have also been excluded from the inventory. These habitats, because of their depth, go undetected by aerial imagery. By policy, the Service also excludes certain types of \\""farmed wetlands\\"" as may be defined by the Food Security Act or that do not coincide with the Cowardin et al. definition. Contact the Service\'s Regional Wetland Coordinator for additional information on what types of farmed wetlands are included on wetland maps. More Metadata"'
p1962
aS'nwi###michigan###hydro###environment'
p1963
aS'Michigan'
p1964
aS'geoscientificInformationinlandWatersenvironment'
p1965
aS'http://gis.michigan.opendata.arcgis.com/datasets/a86598be317040febc67941ac7a2768e_18.zip'
p1966
aS'http://gis.michigan.opendata.arcgis.com/datasets/a86598be317040febc67941ac7a2768e_18'
p1967
aS'https://gisago.mcgi.state.mi.us/arcgis/rest/services/OpenData/hydro/MapServer/18'
p1968
ag8
ag12
ag8
ag8
aS'State of  Michigan GIS Open Data'
p1969
aS'State of  Michigan GIS Open Data'
p1970
aS'NationalWetlandsInventory'
p1971
aa(lp1972
S'http://gis.michigan.opendata.arcgis.com/datasets/4f9dd1ac6dd0408fb8da07da63e7b90a_0'
p1973
aS'168600'
p1974
aS'Parks and Landmarks, Detroit'
p1975
aS'"Municipal Parks and Landmark features for the City of Detroit. Includes golf courses, City Airport and civic plazas. Does not include all school parks, unless they are maintained by Detroit Parks and Rec. This layer was developed by Data Driven Detroit by adding to a GIS file that was provided by the City in 2010. Some parks in the file may have been \\""abandoned\\"" and are not maintained any longer."'
p1976
aS'Detroit###Amenities###golf course###Parks###Property Land Use and Housing###Landmarks###Recreation'
p1977
aS'Michigan'
p1978
aS'society'
p1979
aS'http://gis.michigan.opendata.arcgis.com/datasets/4f9dd1ac6dd0408fb8da07da63e7b90a_0.zip'
p1980
aS'http://gis.michigan.opendata.arcgis.com/datasets/4f9dd1ac6dd0408fb8da07da63e7b90a_0'
p1981
aS'https://services2.arcgis.com/HsXtOCMp1Nis1Ogr/arcgis/rest/services/Parks_Landmarks/FeatureServer/0'
p1982
ag8
ag12
ag8
ag8
aS'State of  Michigan GIS Open Data'
p1983
aS'State of  Michigan GIS Open Data'
p1984
aS'ParksandLandmarksDetroit'
p1985
aa(lp1986
S'http://gis.michigan.opendata.arcgis.com/datasets/34e492b59a35475cb2d4b67a9bc7f837_0'
p1987
aS'168599'
p1988
aS'People Mover Route, Detroit'
p1989
aS'There is no description available.'
p1990
aS'People Mover###Transportation###Detroit###Transit###Rail'
p1991
aS'Michigan'
p1992
aS'transportation'
p1993
aS'http://gis.michigan.opendata.arcgis.com/datasets/34e492b59a35475cb2d4b67a9bc7f837_0.zip'
p1994
aS'http://gis.michigan.opendata.arcgis.com/datasets/34e492b59a35475cb2d4b67a9bc7f837_0'
p1995
aS'https://services2.arcgis.com/HsXtOCMp1Nis1Ogr/arcgis/rest/services/PeopleMover_Route/FeatureServer/0'
p1996
ag8
ag12
ag8
ag8
aS'State of  Michigan GIS Open Data'
p1997
aS'State of  Michigan GIS Open Data'
p1998
aS'PeopleMoverRouteDetroit'
p1999
aa(lp2000
S'http://gis.michigan.opendata.arcgis.com/datasets/ed003b1e01b2485191dfe9c2ef2b0528_5'
p2001
aS'168603'
p2002
aS'Michigan Trout Trail Locations'
p2003
aS'There is no description available.'
p2004
aS'fish###fishing###trout###dnr'
p2005
aS'Michigan'
p2006
aS'economy'
p2007
aS'http://gis.michigan.opendata.arcgis.com/datasets/ed003b1e01b2485191dfe9c2ef2b0528_5.zip'
p2008
aS'http://gis.michigan.opendata.arcgis.com/datasets/ed003b1e01b2485191dfe9c2ef2b0528_5'
p2009
aS'https://gisago.mcgi.state.mi.us/arcgis/rest/services/DNR/dnrFisheries/MapServer/5'
p2010
ag8
ag12
ag8
ag8
aS'State of  Michigan GIS Open Data'
p2011
aS'State of  Michigan GIS Open Data'
p2012
aS'MichiganTroutTrailLocations'
p2013
aa(lp2014
S'4ca4505f-a39a-420e-805e-fa0450c55485'
p2015
aS'168602'
p2016
aS'Minor_Civil_Divisions_Cities__Townships'
p2017
ag8
ag8
ag8
ag8
ag8
ag8
ag8
ag8
aS'Shapefile'
p2018
ag8
ag8
aS'State of  Michigan GIS Open Data'
p2019
aS'State of  Michigan GIS Open Data'
p2020
aS'MinorCivilDivisionsCitiesTownships'
p2021
aa(lp2022
S'http://gis.michigan.opendata.arcgis.com/datasets/5b28e7cac7944521bd00f33cac952783_4'
p2023
aS'168607'
p2024
aS'Michigan Public Recreational Vehicle Scramble Areas'
p2025
aS'Recreational vehicle scramble areas open for public use.'
p2026
aS'orv###scramble area###recreation###dnr'
p2027
aS'Michigan'
p2028
aS'society'
p2029
aS'http://gis.michigan.opendata.arcgis.com/datasets/5b28e7cac7944521bd00f33cac952783_4.zip'
p2030
aS'http://gis.michigan.opendata.arcgis.com/datasets/5b28e7cac7944521bd00f33cac952783_4'
p2031
aS'https://gisago.mcgi.state.mi.us/arcgis/rest/services/DNR/dnrParksAndRecreation/MapServer/4'
p2032
ag8
ag12
ag8
ag8
aS'State of  Michigan GIS Open Data'
p2033
aS'State of  Michigan GIS Open Data'
p2034
aS'MichiganPublicRecreationalVehicleScrambleAreas'
p2035
aa(lp2036
S'http://gis.michigan.opendata.arcgis.com/datasets/6abc6bdc8aab48d0a431e4b7a710da30_15'
p2037
aS'168606'
p2038
aS'Michigan Spruce Budworm Locations'
p2039
aS"Spruce Budworm Locations are derived from the Michigan Department of Natural Resources' Forest Health database. These locations are found primarily on state owned land."
p2040
aS'dnr###forestry'
p2041
aS'Michigan'
p2042
aS'economy'
p2043
aS'http://gis.michigan.opendata.arcgis.com/datasets/6abc6bdc8aab48d0a431e4b7a710da30_15.zip'
p2044
aS'http://gis.michigan.opendata.arcgis.com/datasets/6abc6bdc8aab48d0a431e4b7a710da30_15'
p2045
aS'https://gisago.mcgi.state.mi.us/arcgis/rest/services/DNR/dnrForestPlanning/MapServer/15'
p2046
ag8
ag12
ag8
ag8
aS'State of  Michigan GIS Open Data'
p2047
aS'State of  Michigan GIS Open Data'
p2048
aS'MichiganSpruceBudwormLocations'
p2049
aa(lp2050
S'http://gis.michigan.opendata.arcgis.com/datasets/7bfdeaa5811c44a6b2fa9a0e7166af65_5'
p2051
aS'168605'
p2052
aS'Michigan State Park Boundaries'
p2053
aS'Michigan State Park Boundaries are managed by the Parks & Rec. Division within the DNR.'
p2054
aS'park###dnr'
p2055
aS'Michigan'
p2056
ag8
aS'http://gis.michigan.opendata.arcgis.com/datasets/7bfdeaa5811c44a6b2fa9a0e7166af65_5.zip'
p2057
aS'http://gis.michigan.opendata.arcgis.com/datasets/7bfdeaa5811c44a6b2fa9a0e7166af65_5'
p2058
aS'https://gisago.mcgi.state.mi.us/arcgis/rest/services/DNR/dnrParksAndRecreation/MapServer/5'
p2059
ag8
ag12
ag8
ag8
aS'State of  Michigan GIS Open Data'
p2060
aS'State of  Michigan GIS Open Data'
p2061
aS'MichiganStateParkBoundaries'
p2062
aa(lp2063
S'http://gis.michigan.opendata.arcgis.com/datasets/91d6080f34c2479ba9895768ce33b006_2'
p2064
aS'168604'
p2065
aS'Michigan State Park Campgrounds'
p2066
aS'State Park Campgrounds are public campgrounds located within Michigan State Parks. Metadata'
p2067
aS'campground###recreation###dnr'
p2068
aS'Michigan'
p2069
aS'society'
p2070
aS'http://gis.michigan.opendata.arcgis.com/datasets/91d6080f34c2479ba9895768ce33b006_2.zip'
p2071
aS'http://gis.michigan.opendata.arcgis.com/datasets/91d6080f34c2479ba9895768ce33b006_2'
p2072
aS'https://gisago.mcgi.state.mi.us/arcgis/rest/services/DNR/dnrParksAndRecreation/MapServer/2'
p2073
ag8
ag12
ag8
ag8
aS'State of  Michigan GIS Open Data'
p2074
aS'State of  Michigan GIS Open Data'
p2075
aS'MichiganStateParkCampgrounds'
p2076
aa(lp2077
S'http://gis.michigan.opendata.arcgis.com/datasets/8af512e10fb84f7baa2765d5b3d88692_33'
p2078
aS'168611'
p2079
aS'Michigan Low Deer Browse Risk Areas'
p2080
aS'Low Deer Browse Risk Areas are areas with varying levels of deer habitat and are less prone to deer browse.'
p2081
aS'wildlife###dnr'
p2082
aS'Michigan'
p2083
aS'biota'
p2084
aS'http://gis.michigan.opendata.arcgis.com/datasets/8af512e10fb84f7baa2765d5b3d88692_33.zip'
p2085
aS'http://gis.michigan.opendata.arcgis.com/datasets/8af512e10fb84f7baa2765d5b3d88692_33'
p2086
aS'https://gisago.mcgi.state.mi.us/arcgis/rest/services/DNR/dnrForestPlanning/MapServer/33'
p2087
ag8
ag12
ag8
ag8
aS'State of  Michigan GIS Open Data'
p2088
aS'State of  Michigan GIS Open Data'
p2089
aS'MichiganLowDeerBrowseRiskAreas'
p2090
aa(lp2091
S'http://gis.michigan.opendata.arcgis.com/datasets/c9c9047970794169b911a255ea7d78c8_0'
p2092
aS'168610'
p2093
aS'Michigan Oak Wilt Locations'
p2094
aS"Oak Wilt Locations are derived from the Michigan Department of Natural Resources' Forest Health database. These locations are found primarily on state owned land."
p2095
aS'dnr###forestry'
p2096
aS'Michigan'
p2097
aS'economy'
p2098
aS'http://gis.michigan.opendata.arcgis.com/datasets/c9c9047970794169b911a255ea7d78c8_0.zip'
p2099
aS'http://gis.michigan.opendata.arcgis.com/datasets/c9c9047970794169b911a255ea7d78c8_0'
p2100
aS'https://gisago.mcgi.state.mi.us/arcgis/rest/services/DNR/dnrForestPlanning/MapServer/0'
p2101
ag8
ag12
ag8
ag8
aS'State of  Michigan GIS Open Data'
p2102
aS'State of  Michigan GIS Open Data'
p2103
aS'MichiganOakWiltLocations'
p2104
aa(lp2105
S'http://gis.michigan.opendata.arcgis.com/datasets/e33baefa170b46928869155f3627de92_1'
p2106
aS'168609'
p2107
aS'Michigan Public Boating Access Sites'
p2108
aS'Boat Access Sites are point locations for all designated public boating access sites.'
p2109
aS'dnr###boat launch###fish###recreation'
p2110
aS'Michigan'
p2111
aS'societyeconomy'
p2112
aS'http://gis.michigan.opendata.arcgis.com/datasets/e33baefa170b46928869155f3627de92_1.zip'
p2113
aS'http://gis.michigan.opendata.arcgis.com/datasets/e33baefa170b46928869155f3627de92_1'
p2114
aS'https://gisago.mcgi.state.mi.us/arcgis/rest/services/DNR/dnrParksAndRecreation/MapServer/1'
p2115
ag8
ag12
ag8
ag8
aS'State of  Michigan GIS Open Data'
p2116
aS'State of  Michigan GIS Open Data'
p2117
aS'MichiganPublicBoatingAccessSites'
p2118
aa(lp2119
S'http://gis.michigan.opendata.arcgis.com/datasets/3459232c427d42d6b193b54046bea6d3_6'
p2120
aS'168608'
p2121
aS'Michigan Prosperity Regions'
p2122
aS'"This layer outlines the 10 \\""economic prosperity regions\\"" in Governor Snyder\'s Region Prosperity Initiative. The Regional Prosperity Initiative is comprised of two parts, an effort by the State of Michigan to align around a common set of service delivery boundaries to create a better structure for collaboration and a local voluntary grant initiative. This geographic delineation is based on county boundaries at the lowest level. Please see the MDOT Metadata Form for additional information. Update Cycle: Michigan RPI Boundaries are static boundaries. Coverage: This is the official boundary delineation for Governor Snyder\xces Region Prosperity Initiative (RPI). Contact: Brad Winkler"'
p2123
aS'boundaries###michigan###transportation###mi###rpi###open data###mdot###regions###prosperity'
p2124
aS'Michigan'
p2125
aS'transportationintelligenceMilitaryboundaries'
p2126
aS'http://gis.michigan.opendata.arcgis.com/datasets/3459232c427d42d6b193b54046bea6d3_6.zip'
p2127
aS'http://gis.michigan.opendata.arcgis.com/datasets/3459232c427d42d6b193b54046bea6d3_6'
p2128
aS'https://gisago.mcgi.state.mi.us/arcgis/rest/services/MDOT/mdot_opendata/MapServer/6'
p2129
ag8
ag12
ag8
ag8
aS'State of  Michigan GIS Open Data'
p2130
aS'State of  Michigan GIS Open Data'
p2131
aS'MichiganProsperityRegions'
p2132
aa(lp2133
S'http://gis.michigan.opendata.arcgis.com/datasets/8668842d72614efeb586159eadbe0b2a_1'
p2134
aS'168612'
p2135
aS'Michigan Historical Markers'
p2136
aS'There is no description available.'
p2137
aS'history###dnr'
p2138
aS'Michigan'
p2139
ag8
aS'http://gis.michigan.opendata.arcgis.com/datasets/8668842d72614efeb586159eadbe0b2a_1.zip'
p2140
aS'http://gis.michigan.opendata.arcgis.com/datasets/8668842d72614efeb586159eadbe0b2a_1'
p2141
aS'http://gisago.mcgi.state.mi.us/arcgis/rest/services/DNR/dnrHistory/MapServer/1'
p2142
ag8
ag12
ag8
ag8
aS'State of  Michigan GIS Open Data'
p2143
aS'State of  Michigan GIS Open Data'
p2144
aS'MichiganHistoricalMarkers'
p2145
aa(lp2146
S'http://gis.michigan.opendata.arcgis.com/datasets/8302a826b9e1410ca8f1f2e73e06b03f_14'
p2147
aS'168613'
p2148
aS'Michigan Hemlock Woody Adelgid Locations'
p2149
aS"Hemlock Woody Adelgid Locations are derived from the Michigan Department of Natural Resources' Forest Health database. These locations are found primarily on state owned land."
p2150
aS'dnr###forestry'
p2151
aS'Michigan'
p2152
aS'economy'
p2153
aS'http://gis.michigan.opendata.arcgis.com/datasets/8302a826b9e1410ca8f1f2e73e06b03f_14.zip'
p2154
aS'http://gis.michigan.opendata.arcgis.com/datasets/8302a826b9e1410ca8f1f2e73e06b03f_14'
p2155
aS'https://gisago.mcgi.state.mi.us/arcgis/rest/services/DNR/dnrForestPlanning/MapServer/14'
p2156
ag8
ag12
ag8
ag8
aS'State of  Michigan GIS Open Data'
p2157
aS'State of  Michigan GIS Open Data'
p2158
aS'MichiganHemlockWoodyAdelgidLocations'
p2159
aa(lp2160
S'http://gis.michigan.opendata.arcgis.com/datasets/833a800ebcb548b194e9b40362a396f1_4'
p2161
aS'168615'
p2162
aS'Michigan Forest Stewardship Plan Boundaries'
p2163
aS'The Forest Stewarship program is a cooperative effort between the US Forest Service and the Michigan DNR. The Forest Stewardship Plan Boundaries are digitized from the legal descriptions provided in the plan documents. Only those private individuals who wish to participate in the Forest Stewardship program and have active Forest Stewardship plans are included in this data.'
p2164
aS'forest stewardship###dnr'
p2165
aS'Michigan'
p2166
ag8
aS'http://gis.michigan.opendata.arcgis.com/datasets/833a800ebcb548b194e9b40362a396f1_4.zip'
p2167
aS'http://gis.michigan.opendata.arcgis.com/datasets/833a800ebcb548b194e9b40362a396f1_4'
p2168
aS'https://gisago.mcgi.state.mi.us/arcgis/rest/services/DNR/dnrForestry/MapServer/4'
p2169
ag8
ag12
ag8
ag8
aS'State of  Michigan GIS Open Data'
p2170
aS'State of  Michigan GIS Open Data'
p2171
aS'MichiganForestStewardshipPlanBoundaries'
p2172
aa(lp2173
S'http://gis.michigan.opendata.arcgis.com/datasets/af6cd858c82944d4a8fc626aeb551d5e_6'
p2174
aS'168614'
p2175
aS'Michigan Geographic Framework Base'
p2176
aS'All features from the Michigan Geographic Framework (MGF) base map. More Metadata'
p2177
aS'boundaries###michigan geographic framework###michigan###streets###transportation###roads###mgf###highways'
p2178
aS'Michigan'
p2179
aS'transportationboundaries'
p2180
aS'http://gis.michigan.opendata.arcgis.com/datasets/af6cd858c82944d4a8fc626aeb551d5e_6.zip'
p2181
aS'http://gis.michigan.opendata.arcgis.com/datasets/af6cd858c82944d4a8fc626aeb551d5e_6'
p2182
aS'https://gisago.mcgi.state.mi.us/arcgis/rest/services/OpenData/michigan_geographic_framework/MapServer/6'
p2183
ag8
ag12
ag8
ag8
aS'State of  Michigan GIS Open Data'
p2184
aS'State of  Michigan GIS Open Data'
p2185
aS'MichiganGeographicFrameworkBase'
p2186
aa(lp2187
S'http://gis.michigan.opendata.arcgis.com/datasets/2aa59d73bbaa4c13a12539713c6e8f3b_2'
p2188
aS'168618'
p2189
aS'Michigan Forest Stand Covertype'
p2190
aS"Forest Stand Covertypes as determined by DNR forest stand examiners during the DNR's forest inventory process. Data is also included on Michigan State Park and Michigan Wildlife Division Managed Lands where forest inventory has been completed."
p2191
aS'hunting###forest inventory###covertype###forest stand###dnr###forestry'
p2192
aS'Michigan'
p2193
aS'economy'
p2194
aS'http://gis.michigan.opendata.arcgis.com/datasets/2aa59d73bbaa4c13a12539713c6e8f3b_2.zip'
p2195
aS'http://gis.michigan.opendata.arcgis.com/datasets/2aa59d73bbaa4c13a12539713c6e8f3b_2'
p2196
aS'https://gisago.mcgi.state.mi.us/arcgis/rest/services/DNR/dnrForestry/MapServer/2'
p2197
ag8
ag12
ag8
ag8
aS'State of  Michigan GIS Open Data'
p2198
aS'State of  Michigan GIS Open Data'
p2199
aS'MichiganForestStandCovertype'
p2200
aa(lp2201
S'http://gis.michigan.opendata.arcgis.com/datasets/48969805b83e44ab85d74eab6b6d2391_10'
p2202
aS'168617'
p2203
aS'Michigan Forest Stand Covertype - Crystal Falls FMU'
p2204
aS'There is no description available.'
p2205
aS'hunting###forest inventory###covertype###forest stand###dnr###forestry'
p2206
aS'Michigan'
p2207
aS'economy'
p2208
aS'http://gis.michigan.opendata.arcgis.com/datasets/48969805b83e44ab85d74eab6b6d2391_10.zip'
p2209
aS'http://gis.michigan.opendata.arcgis.com/datasets/48969805b83e44ab85d74eab6b6d2391_10'
p2210
aS'http://gisago.mcgi.state.mi.us/arcgis/rest/services/DNR/dnrForestry/MapServer/10'
p2211
ag8
ag12
ag8
ag8
aS'State of  Michigan GIS Open Data'
p2212
aS'State of  Michigan GIS Open Data'
p2213
aS'MichiganForestStandCovertypeCrystalFallsFMU'
p2214
aa(lp2215
S'http://gis.michigan.opendata.arcgis.com/datasets/b826e866a5b5435a858d46e730164b49_3'
p2216
aS'168616'
p2217
aS'Michigan Forest Stand Treatments'
p2218
aS'There is no description available.'
p2219
aS'dnr###forest stand###forest inventory###forestry###treatment'
p2220
aS'Michigan'
p2221
aS'environmenteconomy'
p2222
aS'http://gis.michigan.opendata.arcgis.com/datasets/b826e866a5b5435a858d46e730164b49_3.zip'
p2223
aS'http://gis.michigan.opendata.arcgis.com/datasets/b826e866a5b5435a858d46e730164b49_3'
p2224
aS'https://gisago.mcgi.state.mi.us/arcgis/rest/services/DNR/dnrForestry/MapServer/3'
p2225
ag8
ag12
ag8
ag8
aS'State of  Michigan GIS Open Data'
p2226
aS'State of  Michigan GIS Open Data'
p2227
aS'MichiganForestStandTreatments'
p2228
aa(lp2229
S'http://gis.michigan.opendata.arcgis.com/datasets/dfe0bcec31184b57b9f0d96bc02d6548_1'
p2230
aS'168619'
p2231
aS'Michigan Forest Compartment Boundaries'
p2232
aS'There is no description available.'
p2233
aS'public land###dnr###forestry'
p2234
aS'Michigan'
p2235
aS'economy'
p2236
aS'http://gis.michigan.opendata.arcgis.com/datasets/dfe0bcec31184b57b9f0d96bc02d6548_1.zip'
p2237
aS'http://gis.michigan.opendata.arcgis.com/datasets/dfe0bcec31184b57b9f0d96bc02d6548_1'
p2238
aS'https://gisago.mcgi.state.mi.us/arcgis/rest/services/DNR/dnrForestry/MapServer/1'
p2239
ag8
ag12
ag8
ag8
aS'State of  Michigan GIS Open Data'
p2240
aS'State of  Michigan GIS Open Data'
p2241
aS'MichiganForestCompartmentBoundaries'
p2242
aa(lp2243
S'http://gis.michigan.opendata.arcgis.com/datasets/0346baa355f640138f4580a5aacb7d20_1'
p2244
aS'168622'
p2245
aS'Michigan DNR Tax Reverted Lands'
p2246
aS'The Tax Reverted DNR Parcels are linked to the LOTS database by PAR_ID. The LOTS database is updated nightly.'
p2247
aS'ownership###dnr'
p2248
aS'Michigan'
p2249
aS'planningCadastre'
p2250
aS'http://gis.michigan.opendata.arcgis.com/datasets/0346baa355f640138f4580a5aacb7d20_1.zip'
p2251
aS'http://gis.michigan.opendata.arcgis.com/datasets/0346baa355f640138f4580a5aacb7d20_1'
p2252
aS'https://gisago.mcgi.state.mi.us/arcgis/rest/services/DNR/dnrRealEstate/MapServer/1'
p2253
ag8
ag12
ag8
ag8
aS'State of  Michigan GIS Open Data'
p2254
aS'State of  Michigan GIS Open Data'
p2255
aS'MichiganDNRTaxRevertedLands'
p2256
aa(lp2257
S'http://gis.michigan.opendata.arcgis.com/datasets/2fa15571eb4643cb84273f375e2180f9_2'
p2258
aS'168621'
p2259
aS'Michigan DNR Unitized Areas'
p2260
aS'"DNR lands within active unitization agreements. Unitized areas are shown at the quarter-quarter PLSS level. Information for each unitized area is tied to PLSS locations using a GEO_ID (township, range, section, and quarter-quarter section) field."'
p2261
aS'dnr###Mineral'
p2262
aS'Michigan'
p2263
aS'geoscientificInformationeconomy'
p2264
aS'http://gis.michigan.opendata.arcgis.com/datasets/2fa15571eb4643cb84273f375e2180f9_2.zip'
p2265
aS'http://gis.michigan.opendata.arcgis.com/datasets/2fa15571eb4643cb84273f375e2180f9_2'
p2266
aS'https://gisago.mcgi.state.mi.us/arcgis/rest/services/DNR/dnrMinerals/MapServer/2'
p2267
ag8
ag12
ag8
ag8
aS'State of  Michigan GIS Open Data'
p2268
aS'State of  Michigan GIS Open Data'
p2269
aS'MichiganDNRUnitizedAreas'
p2270
aa(lp2271
S'http://gis.michigan.opendata.arcgis.com/datasets/b0c0353c7b8949cba7ff3f6a073ed2d0_0'
p2272
aS'168620'
p2273
aS'Michigan DNR Wildlife Management Units'
p2274
aS'There is no description available.'
p2275
aS'management units###dnr'
p2276
aS'Michigan'
p2277
ag8
aS'http://gis.michigan.opendata.arcgis.com/datasets/b0c0353c7b8949cba7ff3f6a073ed2d0_0.zip'
p2278
aS'http://gis.michigan.opendata.arcgis.com/datasets/b0c0353c7b8949cba7ff3f6a073ed2d0_0'
p2279
aS'https://gisago.mcgi.state.mi.us/arcgis/rest/services/DNR/dnrWildlife/MapServer/0'
p2280
ag8
ag12
ag8
ag8
aS'State of  Michigan GIS Open Data'
p2281
aS'State of  Michigan GIS Open Data'
p2282
aS'MichiganDNRWildlifeManagementUnits'
p2283
aa(lp2284
S'http://gis.michigan.opendata.arcgis.com/datasets/e73aeb94fa1b4443acd522bb5108ec2e_6'
p2285
aS'168624'
p2286
aS'Michigan DNR Parks and Recreation Management Units'
p2287
aS'There is no description available.'
p2288
aS'management units###dnr'
p2289
aS'Michigan'
p2290
ag8
aS'http://gis.michigan.opendata.arcgis.com/datasets/e73aeb94fa1b4443acd522bb5108ec2e_6.zip'
p2291
aS'http://gis.michigan.opendata.arcgis.com/datasets/e73aeb94fa1b4443acd522bb5108ec2e_6'
p2292
aS'https://gisago.mcgi.state.mi.us/arcgis/rest/services/DNR/dnrParksAndRecreation/MapServer/6'
p2293
ag8
ag12
ag8
ag8
aS'State of  Michigan GIS Open Data'
p2294
aS'State of  Michigan GIS Open Data'
p2295
aS'MichiganDNRParksandRecreationManagementUnits'
p2296
aa(lp2297
S'http://gis.michigan.opendata.arcgis.com/datasets/ca163bb9d47c4fc5ae3781aa043c16e8_2'
p2298
aS'168623'
p2299
aS'Michigan DNR Ownership'
p2300
aS'DNR Ownership data are 40 acre polygons (quarter-quarter grid file) with the GEO_ID field linked to the LOTS database. Updates to the LOTS tables are completed nightly.'
p2301
aS'Mineral###hunting###ownership###dnr'
p2302
aS'Michigan'
p2303
aS'economy'
p2304
aS'http://gis.michigan.opendata.arcgis.com/datasets/ca163bb9d47c4fc5ae3781aa043c16e8_2.zip'
p2305
aS'http://gis.michigan.opendata.arcgis.com/datasets/ca163bb9d47c4fc5ae3781aa043c16e8_2'
p2306
aS'https://gisago.mcgi.state.mi.us/arcgis/rest/services/DNR/dnrRealEstate/MapServer/2'
p2307
ag8
ag12
ag8
ag8
aS'State of  Michigan GIS Open Data'
p2308
aS'State of  Michigan GIS Open Data'
p2309
aS'MichiganDNROwnership'
p2310
aa(lp2311
S'http://gis.michigan.opendata.arcgis.com/datasets/954d40c6b69c4914905f4ebc66551c55_2'
p2312
aS'168626'
p2313
aS'Michigan DNR Managed Gates and Berms'
p2314
aS"Gates and Berms are managed through the DNR's forest inventory process."
p2315
aS'berm###gate###dnr'
p2316
aS'Michigan'
p2317
ag8
aS'http://gis.michigan.opendata.arcgis.com/datasets/954d40c6b69c4914905f4ebc66551c55_2.zip'
p2318
aS'http://gis.michigan.opendata.arcgis.com/datasets/954d40c6b69c4914905f4ebc66551c55_2'
p2319
aS'https://gisago.mcgi.state.mi.us/arcgis/rest/services/DNR/dnrBaseFeatures/MapServer/2'
p2320
ag8
ag12
ag8
ag8
aS'State of  Michigan GIS Open Data'
p2321
aS'State of  Michigan GIS Open Data'
p2322
aS'MichiganDNRManagedGatesandBerms'
p2323
aa(lp2324
S'http://gis.michigan.opendata.arcgis.com/datasets/853b1d5481a848b99c934cd4fa8deae0_3'
p2325
aS'168625'
p2326
aS'Michigan DNR Managed Roads'
p2327
aS'"State Forest Roads are from the Michigan Geographic Framework dataset version 9 with state forest roads added through the Department of Natural Resources\' (DNR) forest inventory process. This dataset is not complete at this time, but will have new roads added as the DNR continues its forest inventory process."'
p2328
aS'road###transportation###roads###dnr'
p2329
aS'Michigan'
p2330
aS'transportation'
p2331
aS'http://gis.michigan.opendata.arcgis.com/datasets/853b1d5481a848b99c934cd4fa8deae0_3.zip'
p2332
aS'http://gis.michigan.opendata.arcgis.com/datasets/853b1d5481a848b99c934cd4fa8deae0_3'
p2333
aS'https://gisago.mcgi.state.mi.us/arcgis/rest/services/DNR/dnrBaseFeatures/MapServer/3'
p2334
ag8
ag12
ag8
ag8
aS'State of  Michigan GIS Open Data'
p2335
aS'State of  Michigan GIS Open Data'
p2336
aS'MichiganDNRManagedRoads'
p2337
aa(lp2338
S'http://gis.michigan.opendata.arcgis.com/datasets/537e94ba5031436d9fdb195fb0aafb24_0'
p2339
aS'168627'
p2340
aS'Michigan DNR Managed Culverts'
p2341
aS"Point data for culvert locations. These culverts are managed through the DNR's forest inventory process."
p2342
aS'culvert###dnr###transportation'
p2343
aS'Michigan'
p2344
aS'transportationintelligenceMilitary'
p2345
aS'http://gis.michigan.opendata.arcgis.com/datasets/537e94ba5031436d9fdb195fb0aafb24_0.zip'
p2346
aS'http://gis.michigan.opendata.arcgis.com/datasets/537e94ba5031436d9fdb195fb0aafb24_0'
p2347
aS'https://gisago.mcgi.state.mi.us/arcgis/rest/services/DNR/dnrBaseFeatures/MapServer/0'
p2348
ag8
ag12
ag8
ag8
aS'State of  Michigan GIS Open Data'
p2349
aS'State of  Michigan GIS Open Data'
p2350
aS'MichiganDNRManagedCulverts'
p2351
aa(lp2352
S'http://gis.michigan.opendata.arcgis.com/datasets/06a6013391014810b03a1ccc9f519118_0'
p2353
aS'168629'
p2354
aS'Michigan DNR Law Enforcement Management Units'
p2355
aS'There is no description available.'
p2356
aS'management units###dnr'
p2357
aS'Michigan'
p2358
ag8
aS'http://gis.michigan.opendata.arcgis.com/datasets/06a6013391014810b03a1ccc9f519118_0.zip'
p2359
aS'http://gis.michigan.opendata.arcgis.com/datasets/06a6013391014810b03a1ccc9f519118_0'
p2360
aS'http://gisago.mcgi.state.mi.us/arcgis/rest/services/DNR/dnrLawEnforcement/MapServer/0'
p2361
ag8
ag12
ag8
ag8
aS'State of  Michigan GIS Open Data'
p2362
aS'State of  Michigan GIS Open Data'
p2363
aS'MichiganDNRLawEnforcementManagementUnits'
p2364
aa(lp2365
S'http://gis.michigan.opendata.arcgis.com/datasets/202be3addda34b3e9e0c22dc3291075e_1'
p2366
aS'168628'
p2367
aS'Michigan DNR Managed Bridges'
p2368
aS'"Point data for bridge locations, includes vehicular and pedestrian bridges on road networks and recreational trails. These bridges are updated through the DNR\'s forest inventory and trails management processes."'
p2369
aS'dnr###bridge###transportation'
p2370
aS'Michigan'
p2371
aS'transportationintelligenceMilitary'
p2372
aS'http://gis.michigan.opendata.arcgis.com/datasets/202be3addda34b3e9e0c22dc3291075e_1.zip'
p2373
aS'http://gis.michigan.opendata.arcgis.com/datasets/202be3addda34b3e9e0c22dc3291075e_1'
p2374
aS'https://gisago.mcgi.state.mi.us/arcgis/rest/services/DNR/dnrBaseFeatures/MapServer/1'
p2375
ag8
ag12
ag8
ag8
aS'State of  Michigan GIS Open Data'
p2376
aS'State of  Michigan GIS Open Data'
p2377
aS'MichiganDNRManagedBridges'
p2378
aa(lp2379
S'http://gis.michigan.opendata.arcgis.com/datasets/4b8338eb243e4225bab941a51d48be98_0'
p2380
aS'168630'
p2381
aS'Michigan DNR Forest Management Units'
p2382
aS'There is no description available.'
p2383
aS'management units###dnr'
p2384
aS'Michigan'
p2385
ag8
aS'http://gis.michigan.opendata.arcgis.com/datasets/4b8338eb243e4225bab941a51d48be98_0.zip'
p2386
aS'http://gis.michigan.opendata.arcgis.com/datasets/4b8338eb243e4225bab941a51d48be98_0'
p2387
aS'https://gisago.mcgi.state.mi.us/arcgis/rest/services/DNR/dnrForestry/MapServer/0'
p2388
ag8
ag12
ag8
ag8
aS'State of  Michigan GIS Open Data'
p2389
aS'State of  Michigan GIS Open Data'
p2390
aS'MichiganDNRForestManagementUnits'
p2391
aa(lp2392
S'http://gis.michigan.opendata.arcgis.com/datasets/b16da2564b2c4e47ab035c889eaa2366_5'
p2393
aS'168636'
p2394
aS'Michigan DNR Designated Snowshoe Trails'
p2395
aS'"Designated Snowshoe Trails are the trails specifically designated for Snowshoeing. Other uses may exist including, but not limited to motorized vehicles, hiking pathways, equestrian trails, etc. The trails are located on State, Federal, County, Local, and Private Lands."'
p2396
aS'trail###snowshoe###recreation###dnr'
p2397
aS'Michigan'
p2398
aS'society'
p2399
aS'http://gis.michigan.opendata.arcgis.com/datasets/b16da2564b2c4e47ab035c889eaa2366_5.zip'
p2400
aS'http://gis.michigan.opendata.arcgis.com/datasets/b16da2564b2c4e47ab035c889eaa2366_5'
p2401
aS'https://gisago.mcgi.state.mi.us/arcgis/rest/services/DNR/dnrTrails/MapServer/5'
p2402
ag8
ag12
ag8
ag8
aS'State of  Michigan GIS Open Data'
p2403
aS'State of  Michigan GIS Open Data'
p2404
aS'MichiganDNRDesignatedSnowshoeTrails'
p2405
aa(lp2406
S'http://gis.michigan.opendata.arcgis.com/datasets/dfe1ff34fe65456d9ed90aa6630e724d_2'
p2407
aS'168635'
p2408
aS'Michigan DNR Fisheries Management Units'
p2409
aS'There is no description available.'
p2410
aS'management units###dnr'
p2411
aS'Michigan'
p2412
ag8
aS'http://gis.michigan.opendata.arcgis.com/datasets/dfe1ff34fe65456d9ed90aa6630e724d_2.zip'
p2413
aS'http://gis.michigan.opendata.arcgis.com/datasets/dfe1ff34fe65456d9ed90aa6630e724d_2'
p2414
aS'https://gisago.mcgi.state.mi.us/arcgis/rest/services/DNR/dnrFisheries/MapServer/2'
p2415
ag8
ag12
ag8
ag8
aS'State of  Michigan GIS Open Data'
p2416
aS'State of  Michigan GIS Open Data'
p2417
aS'MichiganDNRFisheriesManagementUnits'
p2418
aa(lp2419
S'http://gis.michigan.opendata.arcgis.com/datasets/49ce3a37a932420c92698015972953b4_0'
p2420
aS'168634'
p2421
aS'Michigan DNR Designated Water Trails'
p2422
aS'"Designated Water Trails are the trails specifically designated for water activities (canoes, kayaks, etc.). The trails are located on State, Federal, County, Local, and Private Lands."'
p2423
aS'trail###water trail###recreation###dnr###nonmotorized'
p2424
aS'Michigan'
p2425
aS'society'
p2426
aS'http://gis.michigan.opendata.arcgis.com/datasets/49ce3a37a932420c92698015972953b4_0.zip'
p2427
aS'http://gis.michigan.opendata.arcgis.com/datasets/49ce3a37a932420c92698015972953b4_0'
p2428
aS'https://gisago.mcgi.state.mi.us/arcgis/rest/services/DNR/dnrTrails/MapServer/0'
p2429
ag8
ag12
ag8
ag8
aS'State of  Michigan GIS Open Data'
p2430
aS'State of  Michigan GIS Open Data'
p2431
aS'MichiganDNRDesignatedWaterTrails'
p2432
aa(lp2433
S'http://gis.michigan.opendata.arcgis.com/datasets/058dbc35024d495ab566246400ced195_4'
p2434
aS'168633'
p2435
aS'Michigan DNR Easement Status'
p2436
aS'Easements DNR Parcels data are the DNR Parcels layer with the PAR_ID field linked to the LOTS database. Updates to the LOTS tables are completed nightly.'
p2437
aS'easement###dnr'
p2438
aS'Michigan'
p2439
ag8
aS'http://gis.michigan.opendata.arcgis.com/datasets/058dbc35024d495ab566246400ced195_4.zip'
p2440
aS'http://gis.michigan.opendata.arcgis.com/datasets/058dbc35024d495ab566246400ced195_4'
p2441
aS'https://gisago.mcgi.state.mi.us/arcgis/rest/services/DNR/dnrMinerals/MapServer/4'
p2442
ag8
ag12
ag8
ag8
aS'State of  Michigan GIS Open Data'
p2443
aS'State of  Michigan GIS Open Data'
p2444
aS'MichiganDNREasementStatus'
p2445
aa(lp2446
S'http://gis.michigan.opendata.arcgis.com/datasets/30729abef77d4433ab5598264f855d92_0'
p2447
aS'168632'
p2448
aS'Michigan DNR Financial Operations and Services Management Units'
p2449
aS'There is no description available.'
p2450
aS'management units###dnr'
p2451
aS'Michigan'
p2452
ag8
aS'http://gis.michigan.opendata.arcgis.com/datasets/30729abef77d4433ab5598264f855d92_0.zip'
p2453
aS'http://gis.michigan.opendata.arcgis.com/datasets/30729abef77d4433ab5598264f855d92_0'
p2454
aS'https://gisago.mcgi.state.mi.us/arcgis/rest/services/DNR/dnrFinance/MapServer/0'
p2455
ag8
ag12
ag8
ag8
aS'State of  Michigan GIS Open Data'
p2456
aS'State of  Michigan GIS Open Data'
p2457
aS'MichiganDNRFinancialOperationsandServicesManagementUnits'
p2458
aa(lp2459
S'http://gis.michigan.opendata.arcgis.com/datasets/54c0daf0a62549d2a515b7b932a9228e_0'
p2460
aS'168631'
p2461
aS'Michigan DNR Fishing Access Sites'
p2462
aS"Fishing Access Sites are point locations for public fishing access on DNR lands. This data is updated through the DNR's forest inventory process."
p2463
aS'dnr###fish wildlife###fish###recreation'
p2464
aS'Michigan'
p2465
aS'societyeconomy'
p2466
aS'http://gis.michigan.opendata.arcgis.com/datasets/54c0daf0a62549d2a515b7b932a9228e_0.zip'
p2467
aS'http://gis.michigan.opendata.arcgis.com/datasets/54c0daf0a62549d2a515b7b932a9228e_0'
p2468
aS'https://gisago.mcgi.state.mi.us/arcgis/rest/services/DNR/dnrParksAndRecreation/MapServer/0'
p2469
ag8
ag12
ag8
ag8
aS'State of  Michigan GIS Open Data'
p2470
aS'State of  Michigan GIS Open Data'
p2471
aS'MichiganDNRFishingAccessSites'
p2472
aa(lp2473
S'http://gis.michigan.opendata.arcgis.com/datasets/1ec4cc8c652b439bba0375719e1d4102_9'
p2474
aS'168637'
p2475
aS'Michigan DNR Designated Snowmobile Trails'
p2476
aS'"Designated Snowmobile Trails are the trails specifically designated for snowmobile Use. The trails are located on State, Federal, County, Local, and Private Lands."'
p2477
aS'trail###snowmobile###recreation###dnr###motorized'
p2478
aS'Michigan'
p2479
aS'society'
p2480
aS'http://gis.michigan.opendata.arcgis.com/datasets/1ec4cc8c652b439bba0375719e1d4102_9.zip'
p2481
aS'http://gis.michigan.opendata.arcgis.com/datasets/1ec4cc8c652b439bba0375719e1d4102_9'
p2482
aS'https://gisago.mcgi.state.mi.us/arcgis/rest/services/DNR/dnrTrails/MapServer/9'
p2483
ag8
ag12
ag8
ag8
aS'State of  Michigan GIS Open Data'
p2484
aS'State of  Michigan GIS Open Data'
p2485
aS'MichiganDNRDesignatedSnowmobileTrails'
p2486
aa(lp2487
S'http://gis.michigan.opendata.arcgis.com/datasets/d856619ccb684dd2b2c83ba9ff319a82_11'
p2488
aS'168639'
p2489
aS'Michigan DNR Designated Railtrails'
p2490
aS'"Designated Railtrails are the trails that were formerly railroad corridors that have been converted to recreational trails. The trails are located on State, Federal, County, Local, and Private Lands."'
p2491
aS'trail###recreation###dnr###motorized###nonmotorized'
p2492
aS'Michigan'
p2493
aS'society'
p2494
aS'http://gis.michigan.opendata.arcgis.com/datasets/d856619ccb684dd2b2c83ba9ff319a82_11.zip'
p2495
aS'http://gis.michigan.opendata.arcgis.com/datasets/d856619ccb684dd2b2c83ba9ff319a82_11'
p2496
aS'https://gisago.mcgi.state.mi.us/arcgis/rest/services/DNR/dnrTrails/MapServer/11'
p2497
ag8
ag12
ag8
ag8
aS'State of  Michigan GIS Open Data'
p2498
aS'State of  Michigan GIS Open Data'
p2499
aS'MichiganDNRDesignatedRailtrails'
p2500
aa(lp2501
S'http://gis.michigan.opendata.arcgis.com/datasets/d2efb1e309234794963e6a8c8b2077d5_4'
p2502
aS'168638'
p2503
aS'Michigan DNR Designated Ski Trails'
p2504
aS'"Designated Ski Trails are the trails specifically designated for Cross-Country Skiing. Other uses may exist including, but not limited to motorized vehicles, hiking pathways, equestrian trails, etc. The trails are located on State, Federal, County, Local, and Private Lands."'
p2505
aS'trail###ski###recreation###dnr###nonmotorized'
p2506
aS'Michigan'
p2507
aS'society'
p2508
aS'http://gis.michigan.opendata.arcgis.com/datasets/d2efb1e309234794963e6a8c8b2077d5_4.zip'
p2509
aS'http://gis.michigan.opendata.arcgis.com/datasets/d2efb1e309234794963e6a8c8b2077d5_4'
p2510
aS'https://gisago.mcgi.state.mi.us/arcgis/rest/services/DNR/dnrTrails/MapServer/4'
p2511
ag8
ag12
ag8
ag8
aS'State of  Michigan GIS Open Data'
p2512
aS'State of  Michigan GIS Open Data'
p2513
aS'MichiganDNRDesignatedSkiTrails'
p2514
aa(lp2515
S'http://gis.michigan.opendata.arcgis.com/datasets/4b41037f62bd44b5bd9fb3932ad13ae9_8'
p2516
aS'168640'
p2517
aS'Michigan DNR Designated ORV Routes'
p2518
aS'"Designated ORV Routes (Off-Road Vehicles) are the trails specifically designated for ORV, ATV, or Motorcycle Use. The trails are located on State, Federal, County, Local, and Private Lands."'
p2519
aS'trail###orv###recreation###dnr###motorized'
p2520
aS'Michigan'
p2521
aS'society'
p2522
aS'http://gis.michigan.opendata.arcgis.com/datasets/4b41037f62bd44b5bd9fb3932ad13ae9_8.zip'
p2523
aS'http://gis.michigan.opendata.arcgis.com/datasets/4b41037f62bd44b5bd9fb3932ad13ae9_8'
p2524
aS'https://gisago.mcgi.state.mi.us/arcgis/rest/services/DNR/dnrTrails/MapServer/8'
p2525
ag8
ag12
ag8
ag8
aS'State of  Michigan GIS Open Data'
p2526
aS'State of  Michigan GIS Open Data'
p2527
aS'MichiganDNRDesignatedORVRoutes'
p2528
aa(lp2529
S'http://gis.michigan.opendata.arcgis.com/datasets/6b6d94cd8b1a4465acfa732c20f1cfe2_6'
p2530
aS'168643'
p2531
aS'Michigan DNR Designated Motorcycle Trails'
p2532
aS'"Designated Motorcycle Trails are the trails specifically designated for Motorcycle Use, which includes ATV Trails and ORV Routes. The trails are located on State, Federal, County, Local, and Private Lands."'
p2533
aS'trail###motorcycle###recreation###dnr###motorized'
p2534
aS'Michigan'
p2535
aS'society'
p2536
aS'http://gis.michigan.opendata.arcgis.com/datasets/6b6d94cd8b1a4465acfa732c20f1cfe2_6.zip'
p2537
aS'http://gis.michigan.opendata.arcgis.com/datasets/6b6d94cd8b1a4465acfa732c20f1cfe2_6'
p2538
aS'https://gisago.mcgi.state.mi.us/arcgis/rest/services/DNR/dnrTrails/MapServer/6'
p2539
ag8
ag12
ag8
ag8
aS'State of  Michigan GIS Open Data'
p2540
aS'State of  Michigan GIS Open Data'
p2541
aS'MichiganDNRDesignatedMotorcycleTrails'
p2542
aa(lp2543
S'http://gis.michigan.opendata.arcgis.com/datasets/023fb05e46ec439caf383ba9bf4dfc81_1'
p2544
aS'168642'
p2545
aS'Michigan DNR Designated Hiking Pathways'
p2546
aS'"Designated Hiking Pathways are the trails specifically designated for Hiking. Other uses may exist including, but not limited to motorized vehicles, bicycle trails, equestrian trails, etc. The trails are located on State, Federal, County, Local, and Private Lands."'
p2547
aS'trail###recreation###dnr###hike###nonmotorized'
p2548
aS'Michigan'
p2549
aS'society'
p2550
aS'http://gis.michigan.opendata.arcgis.com/datasets/023fb05e46ec439caf383ba9bf4dfc81_1.zip'
p2551
aS'http://gis.michigan.opendata.arcgis.com/datasets/023fb05e46ec439caf383ba9bf4dfc81_1'
p2552
aS'https://gisago.mcgi.state.mi.us/arcgis/rest/services/DNR/dnrTrails/MapServer/1'
p2553
ag8
ag12
ag8
ag8
aS'State of  Michigan GIS Open Data'
p2554
aS'State of  Michigan GIS Open Data'
p2555
aS'MichiganDNRDesignatedHikingPathways'
p2556
aa(lp2557
S'http://gis.michigan.opendata.arcgis.com/datasets/36dfcb66e2034ea599369c53af8b221f_10'
p2558
aS'168641'
p2559
aS'Michigan DNR Designated MCCCT Trails'
p2560
aS'"Designated MCCCT (Michigan Cycle Conservation Club Trail) are the trails specifically designated for ORV, ATV, or Motorcycle Use. The trails are located on State, Federal, County, Local, and Private Lands."'
p2561
aS'trail###orv###recreation###dnr###motorized'
p2562
aS'Michigan'
p2563
aS'society'
p2564
aS'http://gis.michigan.opendata.arcgis.com/datasets/36dfcb66e2034ea599369c53af8b221f_10.zip'
p2565
aS'http://gis.michigan.opendata.arcgis.com/datasets/36dfcb66e2034ea599369c53af8b221f_10'
p2566
aS'https://gisago.mcgi.state.mi.us/arcgis/rest/services/DNR/dnrTrails/MapServer/10'
p2567
ag8
ag12
ag8
ag8
aS'State of  Michigan GIS Open Data'
p2568
aS'State of  Michigan GIS Open Data'
p2569
aS'MichiganDNRDesignatedMCCCTTrails'
p2570
aa(lp2571
S'http://gis.michigan.opendata.arcgis.com/datasets/a9e3012e38fe44e99c6aa44d9a4c0952_7'
p2572
aS'168646'
p2573
aS'Michigan DNR Designated ATV Trails'
p2574
aS'"Designated ATV Trails (All Terrain Vehicles) are the trails specifically designated for ATV or Motorcycle Use (only vehicles with less than 50\\"" in width). The trails are located on State, Federal, County, Local, and Private Lands."'
p2575
aS'trail###atv###orv###recreation###dnr###motorized'
p2576
aS'Michigan'
p2577
aS'society'
p2578
aS'http://gis.michigan.opendata.arcgis.com/datasets/a9e3012e38fe44e99c6aa44d9a4c0952_7.zip'
p2579
aS'http://gis.michigan.opendata.arcgis.com/datasets/a9e3012e38fe44e99c6aa44d9a4c0952_7'
p2580
aS'https://gisago.mcgi.state.mi.us/arcgis/rest/services/DNR/dnrTrails/MapServer/7'
p2581
ag8
ag12
ag8
ag8
aS'State of  Michigan GIS Open Data'
p2582
aS'State of  Michigan GIS Open Data'
p2583
aS'MichiganDNRDesignatedATVTrails'
p2584
aa(lp2585
S'http://gis.michigan.opendata.arcgis.com/datasets/3347b6947d724d5e885a00de9dd0d98a_2'
p2586
aS'168645'
p2587
aS'Michigan DNR Designated Bicycle Trails'
p2588
aS'"Designated Bicycle Trails are the trails specifically designated for Bicycles or Mountain Bikes. Other uses may exist including, but not limited to motorized vehicles, hiking pathways, equestrian trails, etc. The trails are located on State, Federal, County, Local, and Private Lands."'
p2589
aS'trail###recreation###dnr###bicycle###nonmotorized'
p2590
aS'Michigan'
p2591
aS'society'
p2592
aS'http://gis.michigan.opendata.arcgis.com/datasets/3347b6947d724d5e885a00de9dd0d98a_2.zip'
p2593
aS'http://gis.michigan.opendata.arcgis.com/datasets/3347b6947d724d5e885a00de9dd0d98a_2'
p2594
aS'https://gisago.mcgi.state.mi.us/arcgis/rest/services/DNR/dnrTrails/MapServer/2'
p2595
ag8
ag12
ag8
ag8
aS'State of  Michigan GIS Open Data'
p2596
aS'State of  Michigan GIS Open Data'
p2597
aS'MichiganDNRDesignatedBicycleTrails'
p2598
aa(lp2599
S'http://gis.michigan.opendata.arcgis.com/datasets/3d861d05460f4e87aca7b5375f3fe26c_3'
p2600
aS'168644'
p2601
aS'Michigan DNR Designated Equestrian Trails'
p2602
aS'"Designated Equestrian Trails are the trails specifically designated for Horseback Riding. Other uses may exist including, but not limited to motorized vehicles, hiking pathways, bicycle trails, etc. The trails are located on State, Federal, County, Local, and Private Lands."'
p2603
aS'trail###equestrian###recreation###dnr###nonmotorized'
p2604
aS'Michigan'
p2605
aS'society'
p2606
aS'http://gis.michigan.opendata.arcgis.com/datasets/3d861d05460f4e87aca7b5375f3fe26c_3.zip'
p2607
aS'http://gis.michigan.opendata.arcgis.com/datasets/3d861d05460f4e87aca7b5375f3fe26c_3'
p2608
aS'https://gisago.mcgi.state.mi.us/arcgis/rest/services/DNR/dnrTrails/MapServer/3'
p2609
ag8
ag12
ag8
ag8
aS'State of  Michigan GIS Open Data'
p2610
aS'State of  Michigan GIS Open Data'
p2611
aS'MichiganDNRDesignatedEquestrianTrails'
p2612
aa(lp2613
S'http://gis.michigan.opendata.arcgis.com/datasets/71c716c0b0cd4969a7bf6d2ec9555c0e_0'
p2614
aS'168649'
p2615
aS'Michigan DNR Acquisition Funding Source'
p2616
aS'DNR Parcel Funding Source data are linked to the LOTS database by PAR_ID. Updates to the LOTS tables are completed nightly.'
p2617
aS'ownership###dnr'
p2618
aS'Michigan'
p2619
aS'planningCadastre'
p2620
aS'http://gis.michigan.opendata.arcgis.com/datasets/71c716c0b0cd4969a7bf6d2ec9555c0e_0.zip'
p2621
aS'http://gis.michigan.opendata.arcgis.com/datasets/71c716c0b0cd4969a7bf6d2ec9555c0e_0'
p2622
aS'https://gisago.mcgi.state.mi.us/arcgis/rest/services/DNR/dnrRealEstate/MapServer/0'
p2623
ag8
ag12
ag8
ag8
aS'State of  Michigan GIS Open Data'
p2624
aS'State of  Michigan GIS Open Data'
p2625
aS'MichiganDNRAcquisitionFundingSource'
p2626
aa(lp2627
S'http://gis.michigan.opendata.arcgis.com/datasets/8e56a132d6c34000bf1485561d0ff924_3'
p2628
aS'168648'
p2629
aS'Michigan DNR Conservation Easements'
p2630
aS'The DNR Conservation Easements data are derived from the Land Ownership Tracking System (LOTS) database. The Current Rights table is linked to the quarter-quarter section file.'
p2631
aS'easement###dnr'
p2632
aS'Michigan'
p2633
ag8
aS'http://gis.michigan.opendata.arcgis.com/datasets/8e56a132d6c34000bf1485561d0ff924_3.zip'
p2634
aS'http://gis.michigan.opendata.arcgis.com/datasets/8e56a132d6c34000bf1485561d0ff924_3'
p2635
aS'https://gisago.mcgi.state.mi.us/arcgis/rest/services/DNR/dnrMinerals/MapServer/3'
p2636
ag8
ag12
ag8
ag8
aS'State of  Michigan GIS Open Data'
p2637
aS'State of  Michigan GIS Open Data'
p2638
aS'MichiganDNRConservationEasements'
p2639
aa(lp2640
S'http://gis.michigan.opendata.arcgis.com/datasets/72903d7d26a44161902960afd64b224c_7'
p2641
aS'168647'
p2642
aS'Michigan DNR Deer Check Stations'
p2643
aS'There is no description available.'
p2644
aS'hunting###deer check###dnr'
p2645
aS'Michigan'
p2646
aS'economy'
p2647
aS'http://gis.michigan.opendata.arcgis.com/datasets/72903d7d26a44161902960afd64b224c_7.zip'
p2648
aS'http://gis.michigan.opendata.arcgis.com/datasets/72903d7d26a44161902960afd64b224c_7'
p2649
aS'https://gisago.mcgi.state.mi.us/arcgis/rest/services/DNR/dnrParksAndRecreation/MapServer/7'
p2650
ag8
ag12
ag8
ag8
aS'State of  Michigan GIS Open Data'
p2651
aS'State of  Michigan GIS Open Data'
p2652
aS'MichiganDNRDeerCheckStations'
p2653
aa(lp2654
S'http://gis.michigan.opendata.arcgis.com/datasets/73be4465aaf6476f981b3a6cf72465be_34'
p2655
aS'168652'
p2656
aS'Michigan Circa 1800 Presettlement Vegetation Cover'
p2657
aS'The Circa 1800 Presettlement Vegetation Cover was digitized from the original General Land Office surveyor notes.'
p2658
aS'dnr###landcover'
p2659
aS'Michigan'
p2660
ag8
aS'http://gis.michigan.opendata.arcgis.com/datasets/73be4465aaf6476f981b3a6cf72465be_34.zip'
p2661
aS'http://gis.michigan.opendata.arcgis.com/datasets/73be4465aaf6476f981b3a6cf72465be_34'
p2662
aS'https://gisago.mcgi.state.mi.us/arcgis/rest/services/DNR/dnrForestPlanning/MapServer/34'
p2663
ag8
ag12
ag8
ag8
aS'State of  Michigan GIS Open Data'
p2664
aS'State of  Michigan GIS Open Data'
p2665
aS'MichiganCirca1800PresettlementVegetationCover'
p2666
aa(lp2667
S'http://gis.michigan.opendata.arcgis.com/datasets/b994b9f6c60c4f918442b9b4f330a7e2_37'
p2668
aS'168757'
p2669
aS'Forest Cover Types: Menominee County, 1939'
p2670
aS'"Marks agricultural land, aspen brush, conifer swamp, mixed hardwoods and softwoods, northern hardwoods saw timber, northern hardwoods young growth, pine, urban, and water'
p2671
aS'Michigan Department of Natural Resources###landcoverMichigan######Menominee County'
p2672
aS' Michigan"'
p2673
aS'biota'
p2674
aS'http://gis.michigan.opendata.arcgis.com/datasets/b994b9f6c60c4f918442b9b4f330a7e2_37.zip'
p2675
aS'http://gis.michigan.opendata.arcgis.com/datasets/b994b9f6c60c4f918442b9b4f330a7e2_37'
p2676
aS'https://gisago.mcgi.state.mi.us/arcgis/rest/services/DNR/dnrForestPlanning/MapServer/37'
p2677
ag8
ag12
ag8
ag8
aS'State of Michigan Department of Natural Resources (MDNR)'
p2678
aS'State of Michigan Department of Natural Resources (MDNR)'
p2679
aS'1939ForestCoverTypesMenomineeCounty'
p2680
aa(lp2681
S'4753853b-1b80-4f17-bf5f-562032c39c61'
p2682
aS'469612'
p2683
aS'Atlas page'
p2684
aS'"Atlas plates 76 and 77.  Longitude west from Greenwich and Washington, D.C.  Map may have been published in 1873 or later."'
p2685
ag8
ag8
aS'boundaries'
p2686
aS'umedia.lib.umn.edu/sites/default/files/reference/60/image/jpeg/1006873.jpg'
p2687
aS'http://purl.umn.edu/89367'
p2688
ag8
ag8
aS'JPEG'
p2689
aS'1873'
p2690
ag8
ag8
ag8
ag8
aa(lp2691
S'http://gis.michigan.opendata.arcgis.com/datasets/60786849e15649b691a921aa379d0c14_11'
p2692
aS'168753'
p2693
aS'Census Tracts: Michigan, 2000'
p2694
aS'2000 Census Tracts from the Michigan Geographic Framework (MGF) base map. Census tracts are small areas created for statistical purposes that usually average about 4000 people. More Metadata'
p2695
aS'michigan###michigan geographic framework###boundaries###census###demographics'
p2696
aS'Michigan'
p2697
aS'societyboundaries'
p2698
aS'http://gis.michigan.opendata.arcgis.com/datasets/60786849e15649b691a921aa379d0c14_11.zip'
p2699
aS'http://gis.michigan.opendata.arcgis.com/datasets/60786849e15649b691a921aa379d0c14_11'
p2700
aS'https://gisago.mcgi.state.mi.us/arcgis/rest/services/OpenData/michigan_geographic_framework/MapServer/11'
p2701
ag8
ag12
ag8
ag8
aS'State of Michigan Center for Shared Solutions'
p2702
aS'State of Michigan Center for Shared Solutions'
p2703
aS'2000CensusTracts'
p2704
aa(lp2705
S'http://gis.michigan.opendata.arcgis.com/datasets/fff0e70373754504b8e74b178e9b5b35_12'
p2706
aS'168754'
p2707
aS'Block Groups: Michigan, 2000'
p2708
aS'"2000 Block Groups from the Michigan Geographic Framework (MGF) base map. Block groups (BG\xces) are combinations of census blocks within a census tract or BNA that share the same first digit in their identifying numbers. For example, BG 3 within a particular census tract comprises all blocks numbered between 301 and 399. A census tract or BNA contains a maximum of nine BGs. BG00 consists of the 6 digit tract number followed by the 1 digit block group number. More Metadata"'
p2709
aS'census###michigan geographic framework###michigan###demographics'
p2710
aS'Michigan'
p2711
aS'society'
p2712
aS'http://gis.michigan.opendata.arcgis.com/datasets/fff0e70373754504b8e74b178e9b5b35_12.zip'
p2713
aS'http://gis.michigan.opendata.arcgis.com/datasets/fff0e70373754504b8e74b178e9b5b35_12'
p2714
aS'https://gisago.mcgi.state.mi.us/arcgis/rest/services/OpenData/michigan_geographic_framework/MapServer/12'
p2715
ag8
ag12
ag8
ag8
aS'State of Michigan Center for Shared Solutions'
p2716
aS'State of Michigan Center for Shared Solutions'
p2717
aS'2000BlockGroups'
p2718
aa(lp2719
S'http://gis.michigan.opendata.arcgis.com/datasets/944639e67a5f4b40a8134f5215da587d_19'
p2720
aS'168756'
p2721
aS'Block Groups: Michigan, 1990'
p2722
aS'"1990 Block Groups from the Michigan Geographic Framework (MGF) base map. Block groups (BG\xces) are combinations of census blocks within a census tract or BNA that share the same first digit in their identifying numbers. For example, BG 3 within a particular census tract comprises all blocks numbered between 301 and 399. A census tract or BNA contains a maximum of nine BGs. BG90 consists of the 6 digit tract number followed by the 1 digit block group number. More Metadata"'
p2723
aS'census###michigan geographic framework###michigan###mgf###demographics'
p2724
aS'Michigan'
p2725
aS'society'
p2726
aS'http://gis.michigan.opendata.arcgis.com/datasets/944639e67a5f4b40a8134f5215da587d_19.zip'
p2727
aS'http://gis.michigan.opendata.arcgis.com/datasets/944639e67a5f4b40a8134f5215da587d_19'
p2728
aS'https://gisago.mcgi.state.mi.us/arcgis/rest/services/OpenData/michigan_geographic_framework/MapServer/19'
p2729
ag8
ag12
ag8
ag8
aS'State of Michigan Center for Shared Solutions'
p2730
aS'State of Michigan Center for Shared Solutions'
p2731
aS'1990BlockGroups'
p2732
aa(lp2733
S'http://gis.michigan.opendata.arcgis.com/datasets/1323e887f5824467b7537969f098cd71_38'
p2734
aS'168758'
p2735
aS'Forest Cover Types: East Upper Peninsula, 1939'
p2736
aS'"Marks agricultural land, aspen brush, conifer swamp, mixed hardwoods and softwoods, northern hardwoods saw timber, northern hardwoods young growth, pine, urban, and water."'
p2737
aS'forest###landcover'
p2738
aS'Michigan'
p2739
aS'biota'
p2740
aS'http://gis.michigan.opendata.arcgis.com/datasets/1323e887f5824467b7537969f098cd71_38.zip'
p2741
aS'http://gis.michigan.opendata.arcgis.com/datasets/1323e887f5824467b7537969f098cd71_38'
p2742
aS'https://gisago.mcgi.state.mi.us/arcgis/rest/services/DNR/dnrForestPlanning/MapServer/38'
p2743
ag8
ag12
aS'2016'
p2744
ag8
aS'State of Michigan Department of Natural Resources'
p2745
aS'State of Michigan Department of Natural Resources'
p2746
aS'1939ForestCoverTypesEastUpperPeninsula'
p2747
aa(lp2748
S'http://gis.michigan.opendata.arcgis.com/datasets/bba3a02d34df442cb326a28baa900419_18'
p2749
aS'168755'
p2750
aS'Census Tracts: Michigan, 1990'
p2751
aS'"1990 Census Tracts from the Michigan Geographic Framework (MGF) base map. Attributes include tract size in square miles, square kilometers, and acres."'
p2752
aS'michigan###demographics###michigan###demographics'
p2753
aS'Michigan'
p2754
aS'society'
p2755
aS'Shapefile'
p2756
aS'Information'
p2757
aS'Esri REST Service'
p2758
ag8
aS'ESRI Shapefile'
p2759
aS'2016'
p2760
ag8
aS'State of Michigan Center for Shared Solutions'
p2761
aS'State of Michigan Center for Shared Solutions'
p2762
aS'1990CensusTracts'
p2763
aa(lp2764
S'http://gis.michigan.opendata.arcgis.com/datasets/2bcfd62c243e462ea4ff040f8581fe5f_0'
p2765
aS'168752'
p2766
aS'Traffic Volumes: Michigan, 2006'
p2767
aS'"The Annual Average Daily Traffic (AADT) is the estimated mean daily traffic volume and the Commercial Annual Average Daily Traffic (CAADT) is the estimated mean daily traffic volume for commercial vehicles. Data Dictionary Data Quality: For continuous sites, estimates are calculated by summing the Annual Average Days of the Week and dividing by seven. For short-count sites, estimates are made by factoring a short count using seasonal and day-of-week adjustment factors. Data Coverage: The dataset covers the entire State of Michigan (state-owned) Trunkline system. Update Cycle: AADT & CAADT volumes are created and released every year. Contact: Kevin Krzeminski"'
p2768
aS'michigan###roadway###traffic###transportation###volume'
p2769
aS'Michigan'
p2770
aS'transportationtransportation'
p2771
aS'http://gis.michigan.opendata.arcgis.com/datasets/2bcfd62c243e462ea4ff040f8581fe5f_0.zip'
p2772
aS'http://gis.michigan.opendata.arcgis.com/datasets/2bcfd62c243e462ea4ff040f8581fe5f_0'
p2773
aS'https://services2.arcgis.com/67lKNkQ2TO1I3lhR/arcgis/rest/services/mdot_traffic_volumes_archive/FeatureServer/0'
p2774
ag8
ag12
ag8
ag8
aS'State of Michigan Department of Transportation'
p2775
aS'State of Michigan Department of Transportation'
p2776
aS'2006MDOTTrafficVolumes'
p2777
aa(lp2778
S'http://gis.michigan.opendata.arcgis.com/datasets/2bcfd62c243e462ea4ff040f8581fe5f_2'
p2779
aS'168750'
p2780
aS'Traffic Volumes: Michigan, 2008'
p2781
aS'"The Annual Average Daily Traffic (AADT) is the estimated mean daily traffic volume and the Commercial Annual Average Daily Traffic (CAADT) is the estimated mean daily traffic volume for commercial vehicles. Data Dictionary Data Quality: For continuous sites, estimates are calculated by summing the Annual Average Days of the Week and dividing by seven. For short-count sites, estimates are made by factoring a short count using seasonal and day-of-week adjustment factors. Data Coverage: The dataset covers the entire State of Michigan (state-owned) Trunkline system. Update Cycle: AADT & CAADT volumes are created and released every year. Contact: Kevin Krzeminski"'
p2782
aS'michigan###transportation###volume###traffic'
p2783
aS'Michigan'
p2784
aS'transportationtransportation'
p2785
aS'http://gis.michigan.opendata.arcgis.com/datasets/2bcfd62c243e462ea4ff040f8581fe5f_2.zip'
p2786
aS'http://gis.michigan.opendata.arcgis.com/datasets/2bcfd62c243e462ea4ff040f8581fe5f_2'
p2787
aS'https://services2.arcgis.com/67lKNkQ2TO1I3lhR/arcgis/rest/services/mdot_traffic_volumes_archive/FeatureServer/2'
p2788
ag8
ag12
ag8
ag8
aS'State of Michigan Department of Transportation'
p2789
aS'State of Michigan Department of Transportation'
p2790
aS'2008MDOTTrafficVolumes'
p2791
aa.(lp0
VCreated: May 12, 2015
p1
aVCreated: March 3, 2015
p2
aVCreated: March 3, 2015
p3
aVCreated: October 13, 2015
p4
aVCreated: October 13, 2015
p5
aVCreated: March 3, 2015
p6
aVCreated: March 3, 2015
p7
aVCreated: December 10, 2015
p8
aVCreated: March 3, 2015
p9
aVCreated: December 10, 2015
p10
aVCreated: March 3, 2015
p11
aVCreated: January 22, 2016
p12
aVCreated: December 10, 2015
p13
aVCreated: December 10, 2015
p14
aVCreated: December 10, 2015
p15
aVCreated: December 10, 2015
p16
aVCreated: December 10, 2015
p17
aVCreated: December 10, 2015
p18
aVCreated: December 10, 2015
p19
aVCreated: December 10, 2015
p20
aVCreated: December 10, 2015
p21
aVCreated: December 10, 2015
p22
aVCreated: December 10, 2015
p23
aVCreated: July 6, 2015
p24
aVCreated: December 10, 2015
p25
aVCreated: October 5, 2015
p26
aVCreated: June 11, 2015
p27
aS''
p28
ag28
aVCreated: June 3, 2015
p29
ag28
ag28
ag28
ag28
ag28
ag28
aVCreated: February 11, 2014
p30
aVCreated: March 2, 2015
p31
aVCreated: March 2, 2015
p32
aVCreated: March 2, 2015
p33
aVCreated: March 2, 2015
p34
aVCreated: March 2, 2015
p35
aVCreated: March 2, 2015
p36
aVCreated: March 2, 2015
p37
aVCreated: March 2, 2015
p38
aVCreated: March 2, 2015
p39
aVCreated: March 2, 2015
p40
aVCreated: March 2, 2015
p41
aVCreated: March 2, 2015
p42
aVCreated: March 2, 2015
p43
aVCreated: December 10, 2015
p44
aVCreated: December 10, 2015
p45
aVCreated: March 2, 2015
p46
aVCreated: March 2, 2015
p47
aVCreated: December 10, 2015
p48
aVCreated: December 10, 2015
p49
aVCreated: December 10, 2015
p50
aVCreated: August 28, 2015
p51
aVCreated: March 2, 2015
p52
aVCreated: December 10, 2015
p53
aVCreated: October 29, 2015
p54
aVCreated: October 16, 2015
p55
aVCreated: October 16, 2015
p56
aVCreated: March 2, 2015
p57
aVCreated: October 16, 2015
p58
aVCreated: October 19, 2015
p59
aVCreated: October 16, 2015
p60
aVCreated: October 19, 2015
p61
aVCreated: February 11, 2014
p62
aVCreated: August 25, 2014
p63
aVCreated: May 27, 2014
p64
aVCreated: March 2, 2015
p65
aVCreated: February 24, 2015
p66
aVCreated: March 2, 2015
p67
aVCreated: December 10, 2015
p68
aVCreated: February 27, 2015
p69
aVCreated: February 27, 2015
p70
aVCreated: February 27, 2015
p71
aVCreated: February 27, 2015
p72
aVCreated: May 12, 2015
p73
aVCreated: January 22, 2016
p74
aVCreated: February 27, 2015
p75
aVCreated: December 10, 2015
p76
aVCreated: December 10, 2015
p77
aVCreated: December 10, 2015
p78
aVCreated: December 10, 2015
p79
aVCreated: December 10, 2015
p80
aVCreated: December 10, 2015
p81
aVCreated: December 10, 2015
p82
aVCreated: February 27, 2015
p83
aVCreated: January 7, 2016
p84
aVCreated: January 7, 2016
p85
aVCreated: January 7, 2016
p86
aVCreated: January 7, 2016
p87
aVCreated: January 7, 2016
p88
aVCreated: January 7, 2016
p89
aVCreated: January 7, 2016
p90
aVCreated: January 7, 2016
p91
aVCreated: January 7, 2016
p92
aVCreated: January 7, 2016
p93
aVCreated: January 7, 2016
p94
aVCreated: January 7, 2016
p95
aVCreated: January 7, 2016
p96
aVCreated: January 7, 2016
p97
aVCreated: January 7, 2016
p98
aVCreated: January 7, 2016
p99
aVCreated: January 7, 2016
p100
aVCreated: January 7, 2016
p101
aVCreated: January 7, 2016
p102
aVCreated: January 7, 2016
p103
aVCreated: January 7, 2016
p104
aVCreated: January 7, 2016
p105
aVCreated: February 27, 2015
p106
aVCreated: May 26, 2015
p107
ag28
ag28
ag28
ag28
ag28
ag28
aVCreated: February 27, 2015
p108
aVCreated: February 27, 2015
p109
ag28
aVCreated: December 10, 2015
p110
aVCreated: December 10, 2015
p111
aVCreated: December 10, 2015
p112
aVCreated: March 3, 2015
p113
aVCreated: March 3, 2015
p114
aVCreated: March 3, 2015
p115
aVCreated: March 3, 2015
p116
aVCreated: March 3, 2015
p117
aVCreated: March 3, 2015
p118
aVCreated: March 3, 2015
p119
aVCreated: October 16, 2014
p120
aVCreated: May 12, 2015
p121
aVCreated: March 3, 2015
p122
aVCreated: March 3, 2015
p123
aVCreated: March 3, 2015
p124
aVCreated: March 3, 2015
p125
aVCreated: March 3, 2015
p126
aVCreated: March 3, 2015
p127
aVCreated: February 11, 2014
p128
aVCreated: February 21, 2014
p129
aVCreated: July 1, 2015
p130
ag28
aVCreated: May 13, 2015
p131
aVCreated: December 10, 2015
p132
aVCreated: May 13, 2015
p133
aVCreated: May 13, 2015
p134
aVCreated: December 10, 2015
p135
aVCreated: January 22, 2016
p136
aVCreated: May 13, 2015
p137
ag28
aVCreated: January 4, 2016
p138
aVCreated: December 10, 2015
p139
aVCreated: May 12, 2015
p140
aVCreated: March 3, 2015
p141
ag28
aVCreated: October 19, 2015
p142
aVCreated: May 12, 2015
p143
aVCreated: May 12, 2015
p144
aVCreated: May 13, 2015
p145
aVCreated: May 13, 2015
p146
aVCreated: May 13, 2015
p147
aVCreated: May 13, 2015
p148
aVCreated: May 12, 2015
p149
aVCreated: May 12, 2015
p150
aVCreated: May 12, 2015
p151
aVCreated: May 12, 2015
p152
aVCreated: May 7, 2015
p153
aVCreated: May 12, 2015
p154
aVCreated: May 12, 2015
p155
aVCreated: May 23, 2015
p156
aVCreated: May 12, 2015
p157
aVCreated: May 23, 2015
p158
aVCreated: May 13, 2015
p159
aVCreated: May 12, 2015
p160
aVCreated: July 15, 2015
p161
aVCreated: May 23, 2015
p162
aVCreated: May 23, 2015
p163
aVCreated: May 23, 2015
p164
aVCreated: May 23, 2015
p165
aVCreated: May 23, 2015
p166
aVCreated: May 23, 2015
p167
aVCreated: May 23, 2015
p168
aVCreated: May 23, 2015
p169
aVCreated: May 23, 2015
p170
aVCreated: May 23, 2015
p171
aVCreated: May 13, 2015
p172
aVCreated: May 13, 2015
p173
aVCreated: June 11, 2015
p174
aVCreated: December 10, 2015
p175
aVCreated: December 10, 2015
p176
ag28
aVCreated: February 27, 2015
p177
aVCreated: February 27, 2015
p178
aVCreated: May 7, 2015
p179
aVCreated: December 10, 2015
p180
ag28
ag28
ag28
a.